(dp0
S'graph_stop'
p1
S"ccopy_reg\n_reconstructor\np0\n(c__main__\nGraphUI\np1\nc__builtin__\nobject\np2\nNtp3\nRp4\n(dp5\nS'g'\np6\ng0\n(cgraph\nGraph\np7\ng2\nNtp8\nRp9\n(dp10\nS'edges'\np11\n(lp12\n(lp13\n(lp14\nI667\naI130\naa(lp15\nI566\naI82\naaa(lp16\ng15\na(lp17\nI384\naI67\naaa(lp18\ng17\na(lp19\nI467\naI165\naaa(lp20\ng19\na(lp21\nI454\naI428\naaa(lp22\ng21\na(lp23\nI693\naI713\naaa(lp24\ng23\na(lp25\nI540\naI664\naaa(lp26\ng25\na(lp27\nI750\naI841\naaa(lp28\ng27\na(lp29\nI790\naI765\naaa(lp30\ng29\na(lp31\nI652\naI503\naaa(lp32\ng31\na(lp33\nI721\naI274\naaa(lp34\ng33\na(lp35\nI892\naI171\naaa(lp36\ng35\na(lp37\nI1116\naI402\naaa(lp38\ng37\na(lp39\nI941\naI285\naaa(lp40\ng39\na(lp41\nI827\naI349\naaa(lp42\ng41\na(lp43\nI752\naI580\naaa(lp44\ng43\na(lp45\nI801\naI657\naaa(lp46\ng45\na(lp47\nI822\naI501\naaa(lp48\ng47\na(lp49\nI928\naI659\naaa(lp50\ng49\na(lp51\nF1102.0\naF673.0\naaa(lp52\ng51\na(lp53\nF1265.0\naF302.0\naaa(lp54\ng53\na(lp55\nI1330\naI515\naaa(lp56\ng55\na(lp57\nI1396\naI315\naaa(lp58\ng57\na(lp59\nI1332\naI41\naaa(lp60\ng59\nag14\naasS'verts'\np61\n(lp62\ng14\nag15\nag17\nag19\nag21\nag23\nag25\nag27\nag29\nag31\nag33\nag35\nag37\nag39\nag41\nag43\nag45\nag47\nag49\nag51\nag53\nag55\nag57\nag59\nasbsS'touch2vertex'\np63\n(dp64\nsS'children'\np65\n(lp66\nsS'parent'\np67\ng0\n(cpymt.ui\nWidget\np68\ng2\nNtp69\nRp70\n(dp71\ng65\n(lp72\ng4\nag0\n(c__main__\nEventLogger\np73\ng2\nNtp74\nRp75\n(dp76\nS'touches'\np77\n(dp78\nS'mouse19'\np79\n(lp80\n(dp81\nS'y'\np82\nI527\nsS'x'\np83\nI186\nsS'type'\np84\nS'down'\np85\nsS't'\np86\nF24.969999999999999\nsa(dp87\ng82\nI527\nsg83\nI188\nsg84\nS'move'\np88\nsg86\nF24.98\nsa(dp89\ng82\nI527\nsg83\nI194\nsg84\ng88\nsg86\nF24.989999999999998\nsa(dp90\ng82\nI527\nsg83\nI204\nsg84\ng88\nsg86\nF25.0\nsa(dp91\ng82\nI532\nsg83\nI239\nsg84\ng88\nsg86\nF25.02\nsa(dp92\ng82\nI535\nsg83\nI289\nsg84\ng88\nsg86\nF25.039999999999999\nsa(dp93\ng82\nI541\nsg83\nI372\nsg84\ng88\nsg86\nF25.050000000000001\nsa(dp94\ng82\nI542\nsg83\nI475\nsg84\ng88\nsg86\nF25.059999999999999\nsa(dp95\ng82\nI529\nsg83\nI566\nsg84\ng88\nsg86\nF25.07\nsa(dp96\ng82\nI512\nsg83\nI662\nsg84\ng88\nsg86\nF25.079999999999998\nsa(dp97\ng82\nI496\nsg83\nI734\nsg84\ng88\nsg86\nF25.09\nsa(dp98\ng82\nI485\nsg83\nI780\nsg84\ng88\nsg86\nF25.100000000000001\nsa(dp99\ng82\nI479\nsg83\nI805\nsg84\ng88\nsg86\nF25.109999999999999\nsa(dp100\ng82\nI477\nsg83\nI820\nsg84\ng88\nsg86\nF25.120000000000001\nsa(dp101\ng82\nI478\nsg83\nI826\nsg84\ng88\nsg86\nF25.140000000000001\nsa(dp102\ng82\nI481\nsg83\nI828\nsg84\ng88\nsg86\nF25.27\nsa(dp103\ng82\nI481\nsg83\nI830\nsg84\ng88\nsg86\nF25.280000000000001\nsa(dp104\ng82\nI479\nsg83\nI839\nsg84\ng88\nsg86\nF25.300000000000001\nsa(dp105\ng82\nI475\nsg83\nI848\nsg84\ng88\nsg86\nF25.309999999999999\nsa(dp106\ng82\nI469\nsg83\nI858\nsg84\ng88\nsg86\nF25.32\nsa(dp107\ng82\nI460\nsg83\nI877\nsg84\ng88\nsg86\nF25.329999999999998\nsa(dp108\ng82\nI451\nsg83\nI893\nsg84\ng88\nsg86\nF25.34\nsa(dp109\ng82\nI443\nsg83\nI906\nsg84\ng88\nsg86\nF25.350000000000001\nsa(dp110\ng82\nI430\nsg83\nI916\nsg84\ng88\nsg86\nF25.359999999999999\nsa(dp111\ng82\nI418\nsg83\nI921\nsg84\ng88\nsg86\nF25.370000000000001\nsa(dp112\ng82\nI409\nsg83\nI923\nsg84\ng88\nsg86\nF25.379999999999999\nsa(dp113\ng82\nI403\nsg83\nI923\nsg84\ng88\nsg86\nF25.390000000000001\nsa(dp114\ng82\nI399\nsg83\nI923\nsg84\ng88\nsg86\nF25.399999999999999\nsa(dp115\ng82\nI388\nsg83\nI917\nsg84\ng88\nsg86\nF25.420000000000002\nsa(dp116\ng82\nI378\nsg83\nI907\nsg84\ng88\nsg86\nF25.440000000000001\nsa(dp117\ng82\nI368\nsg83\nI897\nsg84\ng88\nsg86\nF25.449999999999999\nsa(dp118\ng82\nI364\nsg83\nI891\nsg84\ng88\nsg86\nF25.460000000000001\nsa(dp119\ng82\nI360\nsg83\nI885\nsg84\ng88\nsg86\nF25.469999999999999\nsa(dp120\ng82\nI360\nsg83\nI882\nsg84\ng88\nsg86\nF25.48\nsa(dp121\ng82\nI356\nsg83\nI872\nsg84\ng88\nsg86\nF25.489999999999998\nsa(dp122\ng82\nI353\nsg83\nI864\nsg84\ng88\nsg86\nF25.5\nsa(dp123\ng82\nI351\nsg83\nI858\nsg84\ng88\nsg86\nF25.510000000000002\nsa(dp124\ng82\nI350\nsg83\nI854\nsg84\ng88\nsg86\nF25.530000000000001\nsa(dp125\ng82\nI349\nsg83\nI843\nsg84\ng88\nsg86\nF25.550000000000001\nsa(dp126\ng82\nI349\nsg83\nI835\nsg84\ng88\nsg86\nF25.559999999999999\nsa(dp127\ng82\nI349\nsg83\nI830\nsg84\ng88\nsg86\nF25.57\nsa(dp128\ng82\nI349\nsg83\nI827\nsg84\ng88\nsg86\nF25.600000000000001\nsa(dp129\ng82\nI349\nsg83\nI827\nsg84\nS'up'\np130\nsg86\nF25.640000000000001\nsasS'mouse18'\np131\n(lp132\n(dp133\ng82\nI553\nsg83\nI1020\nsg84\ng85\nsg86\nF23.719999999999999\nsa(dp134\ng82\nI553\nsg83\nI1021\nsg84\ng88\nsg86\nF23.739999999999998\nsa(dp135\ng82\nI553\nsg83\nI1020\nsg84\ng88\nsg86\nF23.77\nsa(dp136\ng82\nI553\nsg83\nI1014\nsg84\ng88\nsg86\nF23.780000000000001\nsa(dp137\ng82\nI566\nsg83\nI993\nsg84\ng88\nsg86\nF23.789999999999999\nsa(dp138\ng82\nI582\nsg83\nI965\nsg84\ng88\nsg86\nF23.800000000000001\nsa(dp139\ng82\nI621\nsg83\nI901\nsg84\ng88\nsg86\nF23.809999999999999\nsa(dp140\ng82\nI650\nsg83\nI854\nsg84\ng88\nsg86\nF23.82\nsa(dp141\ng82\nI681\nsg83\nI797\nsg84\ng88\nsg86\nF23.84\nsa(dp142\ng82\nI694\nsg83\nI760\nsg84\ng88\nsg86\nF23.850000000000001\nsa(dp143\ng82\nI701\nsg83\nI739\nsg84\ng88\nsg86\nF23.859999999999999\nsa(dp144\ng82\nI705\nsg83\nI724\nsg84\ng88\nsg86\nF23.879999999999999\nsa(dp145\ng82\nI708\nsg83\nI715\nsg84\ng88\nsg86\nF23.890000000000001\nsa(dp146\ng82\nI709\nsg83\nI709\nsg84\ng88\nsg86\nF23.899999999999999\nsa(dp147\ng82\nI709\nsg83\nI707\nsg84\ng88\nsg86\nF23.91\nsa(dp148\ng82\nI710\nsg83\nI707\nsg84\ng88\nsg86\nF23.940000000000001\nsa(dp149\ng82\nI710\nsg83\nI706\nsg84\ng88\nsg86\nF23.960000000000001\nsa(dp150\ng82\nI710\nsg83\nI705\nsg84\ng88\nsg86\nF23.969999999999999\nsa(dp151\ng82\nI710\nsg83\nI704\nsg84\ng88\nsg86\nF23.98\nsa(dp152\ng82\nI710\nsg83\nI702\nsg84\ng88\nsg86\nF23.989999999999998\nsa(dp153\ng82\nI711\nsg83\nI699\nsg84\ng88\nsg86\nF24.010000000000002\nsa(dp154\ng82\nI712\nsg83\nI697\nsg84\ng88\nsg86\nF24.02\nsa(dp155\ng82\nI712\nsg83\nI696\nsg84\ng88\nsg86\nF24.030000000000001\nsa(dp156\ng82\nI713\nsg83\nI694\nsg84\ng88\nsg86\nF24.039999999999999\nsa(dp157\ng82\nI713\nsg83\nI693\nsg84\ng88\nsg86\nF24.059999999999999\nsa(dp158\ng82\nI713\nsg83\nI693\nsg84\ng130\nsg86\nF24.120000000000001\nsasS'mouse11'\np159\n(lp160\n(dp161\ng82\nI339\nsg83\nI956\nsg84\ng85\nsg86\nF14.460000000000001\nsa(dp162\ng82\nI339\nsg83\nI957\nsg84\ng88\nsg86\nF14.470000000000001\nsa(dp163\ng82\nI339\nsg83\nI955\nsg84\ng88\nsg86\nF14.49\nsa(dp164\ng82\nI341\nsg83\nI951\nsg84\ng88\nsg86\nF14.5\nsa(dp165\ng82\nI349\nsg83\nI930\nsg84\ng88\nsg86\nF14.51\nsa(dp166\ng82\nI373\nsg83\nI877\nsg84\ng88\nsg86\nF14.52\nsa(dp167\ng82\nI427\nsg83\nI783\nsg84\ng88\nsg86\nF14.529999999999999\nsa(dp168\ng82\nI463\nsg83\nI726\nsg84\ng88\nsg86\nF14.539999999999999\nsa(dp169\ng82\nI492\nsg83\nI675\nsg84\ng88\nsg86\nF14.550000000000001\nsa(dp170\ng82\nI511\nsg83\nI634\nsg84\ng88\nsg86\nF14.58\nsa(dp171\ng82\nI523\nsg83\nI610\nsg84\ng88\nsg86\nF14.6\nsa(dp172\ng82\nI534\nsg83\nI596\nsg84\ng88\nsg86\nF14.609999999999999\nsa(dp173\ng82\nI543\nsg83\nI587\nsg84\ng88\nsg86\nF14.619999999999999\nsa(dp174\ng82\nI548\nsg83\nI583\nsg84\ng88\nsg86\nF14.630000000000001\nsa(dp175\ng82\nI549\nsg83\nI585\nsg84\ng88\nsg86\nF14.65\nsa(dp176\ng82\nI549\nsg83\nI584\nsg84\ng88\nsg86\nF14.800000000000001\nsa(dp177\ng82\nI550\nsg83\nI584\nsg84\ng88\nsg86\nF14.82\nsa(dp178\ng82\nI550\nsg83\nI582\nsg84\ng88\nsg86\nF14.83\nsa(dp179\ng82\nI552\nsg83\nI581\nsg84\ng88\nsg86\nF14.859999999999999\nsa(dp180\ng82\nI553\nsg83\nI581\nsg84\ng88\nsg86\nF14.9\nsa(dp181\ng82\nI553\nsg83\nI580\nsg84\ng88\nsg86\nF14.92\nsa(dp182\ng82\nI554\nsg83\nI580\nsg84\ng88\nsg86\nF14.94\nsa(dp183\ng82\nI554\nsg83\nI580\nsg84\ng130\nsg86\nF14.98\nsasS'mouse10'\np184\n(lp185\n(dp186\ng82\nI777\nsg83\nI328\nsg84\ng85\nsg86\nF13.0\nsa(dp187\ng82\nI776\nsg83\nI328\nsg84\ng88\nsg86\nF13.01\nsa(dp188\ng82\nI773\nsg83\nI329\nsg84\ng88\nsg86\nF13.029999999999999\nsa(dp189\ng82\nI768\nsg83\nI331\nsg84\ng88\nsg86\nF13.050000000000001\nsa(dp190\ng82\nI758\nsg83\nI334\nsg84\ng88\nsg86\nF13.06\nsa(dp191\ng82\nI748\nsg83\nI337\nsg84\ng88\nsg86\nF13.07\nsa(dp192\ng82\nI738\nsg83\nI339\nsg84\ng88\nsg86\nF13.09\nsa(dp193\ng82\nI707\nsg83\nI344\nsg84\ng88\nsg86\nF13.1\nsa(dp194\ng82\nI689\nsg83\nI349\nsg84\ng88\nsg86\nF13.119999999999999\nsa(dp195\ng82\nI656\nsg83\nI361\nsg84\ng88\nsg86\nF13.130000000000001\nsa(dp196\ng82\nI626\nsg83\nI373\nsg84\ng88\nsg86\nF13.140000000000001\nsa(dp197\ng82\nI576\nsg83\nI389\nsg84\ng88\nsg86\nF13.15\nsa(dp198\ng82\nI549\nsg83\nI398\nsg84\ng88\nsg86\nF13.16\nsa(dp199\ng82\nI528\nsg83\nI404\nsg84\ng88\nsg86\nF13.17\nsa(dp200\ng82\nI511\nsg83\nI411\nsg84\ng88\nsg86\nF13.199999999999999\nsa(dp201\ng82\nI504\nsg83\nI415\nsg84\ng88\nsg86\nF13.210000000000001\nsa(dp202\ng82\nI505\nsg83\nI418\nsg84\ng88\nsg86\nF13.43\nsa(dp203\ng82\nI507\nsg83\nI422\nsg84\ng88\nsg86\nF13.44\nsa(dp204\ng82\nI510\nsg83\nI426\nsg84\ng88\nsg86\nF13.449999999999999\nsa(dp205\ng82\nI513\nsg83\nI429\nsg84\ng88\nsg86\nF13.460000000000001\nsa(dp206\ng82\nI515\nsg83\nI432\nsg84\ng88\nsg86\nF13.470000000000001\nsa(dp207\ng82\nI516\nsg83\nI433\nsg84\ng88\nsg86\nF13.48\nsa(dp208\ng82\nI517\nsg83\nI434\nsg84\ng88\nsg86\nF13.49\nsa(dp209\ng82\nI518\nsg83\nI434\nsg84\ng88\nsg86\nF13.51\nsa(dp210\ng82\nI518\nsg83\nI435\nsg84\ng88\nsg86\nF13.52\nsa(dp211\ng82\nI520\nsg83\nI437\nsg84\ng88\nsg86\nF13.539999999999999\nsa(dp212\ng82\nI520\nsg83\nI438\nsg84\ng88\nsg86\nF13.550000000000001\nsa(dp213\ng82\nI520\nsg83\nI439\nsg84\ng88\nsg86\nF13.619999999999999\nsa(dp214\ng82\nI521\nsg83\nI439\nsg84\ng88\nsg86\nF13.630000000000001\nsa(dp215\ng82\nI521\nsg83\nI441\nsg84\ng88\nsg86\nF13.640000000000001\nsa(dp216\ng82\nI521\nsg83\nI441\nsg84\ng130\nsg86\nF13.67\nsasS'mouse13'\np217\n(lp218\n(dp219\ng82\nI671\nsg83\nI1301\nsg84\ng85\nsg86\nF17.41\nsa(dp220\ng82\nI668\nsg83\nI1301\nsg84\ng88\nsg86\nF17.43\nsa(dp221\ng82\nI664\nsg83\nI1301\nsg84\ng88\nsg86\nF17.449999999999999\nsa(dp222\ng82\nI657\nsg83\nI1301\nsg84\ng88\nsg86\nF17.460000000000001\nsa(dp223\ng82\nI636\nsg83\nI1301\nsg84\ng88\nsg86\nF17.469999999999999\nsa(dp224\ng82\nI608\nsg83\nI1301\nsg84\ng88\nsg86\nF17.48\nsa(dp225\ng82\nI576\nsg83\nI1303\nsg84\ng88\nsg86\nF17.489999999999998\nsa(dp226\ng82\nI522\nsg83\nI1311\nsg84\ng88\nsg86\nF17.5\nsa(dp227\ng82\nI476\nsg83\nI1324\nsg84\ng88\nsg86\nF17.52\nsa(dp228\ng82\nI424\nsg83\nI1341\nsg84\ng88\nsg86\nF17.530000000000001\nsa(dp229\ng82\nI393\nsg83\nI1353\nsg84\ng88\nsg86\nF17.539999999999999\nsa(dp230\ng82\nI375\nsg83\nI1360\nsg84\ng88\nsg86\nF17.550000000000001\nsa(dp231\ng82\nI366\nsg83\nI1364\nsg84\ng88\nsg86\nF17.57\nsa(dp232\ng82\nI362\nsg83\nI1367\nsg84\ng88\nsg86\nF17.699999999999999\nsa(dp233\ng82\nI360\nsg83\nI1371\nsg84\ng88\nsg86\nF17.710000000000001\nsa(dp234\ng82\nI353\nsg83\nI1375\nsg84\ng88\nsg86\nF17.719999999999999\nsa(dp235\ng82\nI345\nsg83\nI1379\nsg84\ng88\nsg86\nF17.73\nsa(dp236\ng82\nI340\nsg83\nI1381\nsg84\ng88\nsg86\nF17.75\nsa(dp237\ng82\nI334\nsg83\nI1384\nsg84\ng88\nsg86\nF17.77\nsa(dp238\ng82\nI327\nsg83\nI1389\nsg84\ng88\nsg86\nF17.780000000000001\nsa(dp239\ng82\nI321\nsg83\nI1392\nsg84\ng88\nsg86\nF17.800000000000001\nsa(dp240\ng82\nI317\nsg83\nI1395\nsg84\ng88\nsg86\nF17.809999999999999\nsa(dp241\ng82\nI315\nsg83\nI1395\nsg84\ng88\nsg86\nF17.829999999999998\nsa(dp242\ng82\nI315\nsg83\nI1396\nsg84\ng88\nsg86\nF17.850000000000001\nsa(dp243\ng82\nI315\nsg83\nI1396\nsg84\ng130\nsg86\nF17.870000000000001\nsasS'mouse12'\np244\n(lp245\n(dp246\ng82\nI382\nsg83\nI678\nsg84\ng85\nsg86\nF15.43\nsa(dp247\ng82\nI383\nsg83\nI678\nsg84\ng88\nsg86\nF15.449999999999999\nsa(dp248\ng82\nI386\nsg83\nI673\nsg84\ng88\nsg86\nF15.470000000000001\nsa(dp249\ng82\nI391\nsg83\nI668\nsg84\ng88\nsg86\nF15.48\nsa(dp250\ng82\nI396\nsg83\nI663\nsg84\ng88\nsg86\nF15.49\nsa(dp251\ng82\nI401\nsg83\nI658\nsg84\ng88\nsg86\nF15.5\nsa(dp252\ng82\nI411\nsg83\nI650\nsg84\ng88\nsg86\nF15.51\nsa(dp253\ng82\nI418\nsg83\nI644\nsg84\ng88\nsg86\nF15.52\nsa(dp254\ng82\nI424\nsg83\nI639\nsg84\ng88\nsg86\nF15.529999999999999\nsa(dp255\ng82\nI429\nsg83\nI634\nsg84\ng88\nsg86\nF15.550000000000001\nsa(dp256\ng82\nI434\nsg83\nI628\nsg84\ng88\nsg86\nF15.56\nsa(dp257\ng82\nI438\nsg83\nI624\nsg84\ng88\nsg86\nF15.57\nsa(dp258\ng82\nI446\nsg83\nI618\nsg84\ng88\nsg86\nF15.59\nsa(dp259\ng82\nI452\nsg83\nI615\nsg84\ng88\nsg86\nF15.609999999999999\nsa(dp260\ng82\nI458\nsg83\nI612\nsg84\ng88\nsg86\nF15.619999999999999\nsa(dp261\ng82\nI461\nsg83\nI611\nsg84\ng88\nsg86\nF15.640000000000001\nsa(dp262\ng82\nI463\nsg83\nI611\nsg84\ng88\nsg86\nF15.65\nsa(dp263\ng82\nI465\nsg83\nI611\nsg84\ng88\nsg86\nF15.67\nsa(dp264\ng82\nI465\nsg83\nI611\nsg84\ng130\nsg86\nF15.83\nsasS'mouse15'\np265\n(lp266\n(dp267\ng82\nI158\nsg83\nI1276\nsg84\ng85\nsg86\nF19.75\nsa(dp268\ng82\nI159\nsg83\nI1273\nsg84\ng88\nsg86\nF19.800000000000001\nsa(dp269\ng82\nI162\nsg83\nI1264\nsg84\ng88\nsg86\nF19.809999999999999\nsa(dp270\ng82\nI171\nsg83\nI1250\nsg84\ng88\nsg86\nF19.82\nsa(dp271\ng82\nI192\nsg83\nI1216\nsg84\ng88\nsg86\nF19.829999999999998\nsa(dp272\ng82\nI217\nsg83\nI1169\nsg84\ng88\nsg86\nF19.850000000000001\nsa(dp273\ng82\nI256\nsg83\nI1091\nsg84\ng88\nsg86\nF19.859999999999999\nsa(dp274\ng82\nI283\nsg83\nI1029\nsg84\ng88\nsg86\nF19.879999999999999\nsa(dp275\ng82\nI296\nsg83\nI977\nsg84\ng88\nsg86\nF19.899999999999999\nsa(dp276\ng82\nI301\nsg83\nI947\nsg84\ng88\nsg86\nF19.920000000000002\nsa(dp277\ng82\nI301\nsg83\nI929\nsg84\ng88\nsg86\nF19.940000000000001\nsa(dp278\ng82\nI301\nsg83\nI920\nsg84\ng88\nsg86\nF19.949999999999999\nsa(dp279\ng82\nI300\nsg83\nI917\nsg84\ng88\nsg86\nF20.079999999999998\nsa(dp280\ng82\nI300\nsg83\nI915\nsg84\ng88\nsg86\nF20.09\nsa(dp281\ng82\nI299\nsg83\nI911\nsg84\ng88\nsg86\nF20.100000000000001\nsa(dp282\ng82\nI299\nsg83\nI907\nsg84\ng88\nsg86\nF20.109999999999999\nsa(dp283\ng82\nI299\nsg83\nI903\nsg84\ng88\nsg86\nF20.120000000000001\nsa(dp284\ng82\nI299\nsg83\nI900\nsg84\ng88\nsg86\nF20.129999999999999\nsa(dp285\ng82\nI299\nsg83\nI902\nsg84\ng88\nsg86\nF20.199999999999999\nsa(dp286\ng82\nI299\nsg83\nI904\nsg84\ng88\nsg86\nF20.210000000000001\nsa(dp287\ng82\nI298\nsg83\nI908\nsg84\ng88\nsg86\nF20.23\nsa(dp288\ng82\nI296\nsg83\nI912\nsg84\ng88\nsg86\nF20.239999999999998\nsa(dp289\ng82\nI294\nsg83\nI919\nsg84\ng88\nsg86\nF20.25\nsa(dp290\ng82\nI292\nsg83\nI925\nsg84\ng88\nsg86\nF20.260000000000002\nsa(dp291\ng82\nI289\nsg83\nI930\nsg84\ng88\nsg86\nF20.27\nsa(dp292\ng82\nI288\nsg83\nI934\nsg84\ng88\nsg86\nF20.289999999999999\nsa(dp293\ng82\nI285\nsg83\nI938\nsg84\ng88\nsg86\nF20.300000000000001\nsa(dp294\ng82\nI285\nsg83\nI941\nsg84\ng88\nsg86\nF20.309999999999999\nsa(dp295\ng82\nI285\nsg83\nI941\nsg84\ng130\nsg86\nF20.350000000000001\nsasS'mouse14'\np296\n(lp297\n(dp298\ng82\nI529\nsg83\nI1181\nsg84\ng85\nsg86\nF18.43\nsa(dp299\ng82\nI528\nsg83\nI1181\nsg84\ng88\nsg86\nF18.440000000000001\nsa(dp300\ng82\nI524\nsg83\nI1183\nsg84\ng88\nsg86\nF18.449999999999999\nsa(dp301\ng82\nI517\nsg83\nI1187\nsg84\ng88\nsg86\nF18.460000000000001\nsa(dp302\ng82\nI493\nsg83\nI1197\nsg84\ng88\nsg86\nF18.469999999999999\nsa(dp303\ng82\nI438\nsg83\nI1212\nsg84\ng88\nsg86\nF18.489999999999998\nsa(dp304\ng82\nI361\nsg83\nI1227\nsg84\ng88\nsg86\nF18.5\nsa(dp305\ng82\nI314\nsg83\nI1233\nsg84\ng88\nsg86\nF18.52\nsa(dp306\ng82\nI279\nsg83\nI1238\nsg84\ng88\nsg86\nF18.530000000000001\nsa(dp307\ng82\nI255\nsg83\nI1242\nsg84\ng88\nsg86\nF18.539999999999999\nsa(dp308\ng82\nI241\nsg83\nI1246\nsg84\ng88\nsg86\nF18.550000000000001\nsa(dp309\ng82\nI233\nsg83\nI1250\nsg84\ng88\nsg86\nF18.559999999999999\nsa(dp310\ng82\nI229\nsg83\nI1253\nsg84\ng88\nsg86\nF18.670000000000002\nsa(dp311\ng82\nI226\nsg83\nI1254\nsg84\ng88\nsg86\nF18.68\nsa(dp312\ng82\nI218\nsg83\nI1255\nsg84\ng88\nsg86\nF18.690000000000001\nsa(dp313\ng82\nI210\nsg83\nI1256\nsg84\ng88\nsg86\nF18.699999999999999\nsa(dp314\ng82\nI196\nsg83\nI1258\nsg84\ng88\nsg86\nF18.710000000000001\nsa(dp315\ng82\nI173\nsg83\nI1263\nsg84\ng88\nsg86\nF18.719999999999999\nsa(dp316\ng82\nI143\nsg83\nI1273\nsg84\ng88\nsg86\nF18.739999999999998\nsa(dp317\ng82\nI110\nsg83\nI1286\nsg84\ng88\nsg86\nF18.75\nsa(dp318\ng82\nI89\nsg83\nI1296\nsg84\ng88\nsg86\nF18.760000000000002\nsa(dp319\ng82\nI70\nsg83\nI1304\nsg84\ng88\nsg86\nF18.77\nsa(dp320\ng82\nI55\nsg83\nI1310\nsg84\ng88\nsg86\nF18.789999999999999\nsa(dp321\ng82\nI45\nsg83\nI1314\nsg84\ng88\nsg86\nF18.800000000000001\nsa(dp322\ng82\nI37\nsg83\nI1317\nsg84\ng88\nsg86\nF18.809999999999999\nsa(dp323\ng82\nI33\nsg83\nI1319\nsg84\ng88\nsg86\nF18.82\nsa(dp324\ng82\nI31\nsg83\nI1320\nsg84\ng88\nsg86\nF18.829999999999998\nsa(dp325\ng82\nI30\nsg83\nI1321\nsg84\ng88\nsg86\nF19.0\nsa(dp326\ng82\nI30\nsg83\nI1322\nsg84\ng88\nsg86\nF19.02\nsa(dp327\ng82\nI32\nsg83\nI1322\nsg84\ng88\nsg86\nF19.030000000000001\nsa(dp328\ng82\nI33\nsg83\nI1324\nsg84\ng88\nsg86\nF19.039999999999999\nsa(dp329\ng82\nI35\nsg83\nI1326\nsg84\ng88\nsg86\nF19.050000000000001\nsa(dp330\ng82\nI37\nsg83\nI1328\nsg84\ng88\nsg86\nF19.059999999999999\nsa(dp331\ng82\nI38\nsg83\nI1330\nsg84\ng88\nsg86\nF19.07\nsa(dp332\ng82\nI40\nsg83\nI1331\nsg84\ng88\nsg86\nF19.079999999999998\nsa(dp333\ng82\nI41\nsg83\nI1332\nsg84\ng88\nsg86\nF19.100000000000001\nsa(dp334\ng82\nI41\nsg83\nI1332\nsg84\ng130\nsg86\nF19.140000000000001\nsasS'mouse17'\np335\n(lp336\n(dp337\ng82\nI676\nsg83\nI937\nsg84\ng85\nsg86\nF22.780000000000001\nsa(dp338\ng82\nI676\nsg83\nI932\nsg84\ng88\nsg86\nF22.789999999999999\nsa(dp339\ng82\nI678\nsg83\nI928\nsg84\ng88\nsg86\nF22.800000000000001\nsa(dp340\ng82\nI681\nsg83\nI923\nsg84\ng88\nsg86\nF22.809999999999999\nsa(dp341\ng82\nI694\nsg83\nI902\nsg84\ng88\nsg86\nF22.84\nsa(dp342\ng82\nI721\nsg83\nI867\nsg84\ng88\nsg86\nF22.850000000000001\nsa(dp343\ng82\nI751\nsg83\nI827\nsg84\ng88\nsg86\nF22.859999999999999\nsa(dp344\ng82\nI780\nsg83\nI797\nsg84\ng88\nsg86\nF22.870000000000001\nsa(dp345\ng82\nI800\nsg83\nI779\nsg84\ng88\nsg86\nF22.879999999999999\nsa(dp346\ng82\nI816\nsg83\nI766\nsg84\ng88\nsg86\nF22.890000000000001\nsa(dp347\ng82\nI830\nsg83\nI759\nsg84\ng88\nsg86\nF22.899999999999999\nsa(dp348\ng82\nI841\nsg83\nI750\nsg84\ng88\nsg86\nF22.91\nsa(dp349\ng82\nI841\nsg83\nI750\nsg84\ng130\nsg86\nF23.030000000000001\nsasS'mouse16'\np350\n(lp351\n(dp352\ng82\nI570\nsg83\nI963\nsg84\ng85\nsg86\nF20.969999999999999\nsa(dp353\ng82\nI569\nsg83\nI961\nsg84\ng88\nsg86\nF20.989999999999998\nsa(dp354\ng82\nI569\nsg83\nI957\nsg84\ng88\nsg86\nF21.0\nsa(dp355\ng82\nI567\nsg83\nI949\nsg84\ng88\nsg86\nF21.010000000000002\nsa(dp356\ng82\nI566\nsg83\nI941\nsg84\ng88\nsg86\nF21.02\nsa(dp357\ng82\nI566\nsg83\nI934\nsg84\ng88\nsg86\nF21.039999999999999\nsa(dp358\ng82\nI565\nsg83\nI925\nsg84\ng88\nsg86\nF21.059999999999999\nsa(dp359\ng82\nI563\nsg83\nI919\nsg84\ng88\nsg86\nF21.07\nsa(dp360\ng82\nI562\nsg83\nI913\nsg84\ng88\nsg86\nF21.079999999999998\nsa(dp361\ng82\nI559\nsg83\nI909\nsg84\ng88\nsg86\nF21.09\nsa(dp362\ng82\nI555\nsg83\nI899\nsg84\ng88\nsg86\nF21.109999999999999\nsa(dp363\ng82\nI550\nsg83\nI889\nsg84\ng88\nsg86\nF21.120000000000001\nsa(dp364\ng82\nI546\nsg83\nI881\nsg84\ng88\nsg86\nF21.129999999999999\nsa(dp365\ng82\nI543\nsg83\nI876\nsg84\ng88\nsg86\nF21.140000000000001\nsa(dp366\ng82\nI541\nsg83\nI872\nsg84\ng88\nsg86\nF21.149999999999999\nsa(dp367\ng82\nI542\nsg83\nI873\nsg84\ng88\nsg86\nF21.420000000000002\nsa(dp368\ng82\nI543\nsg83\nI874\nsg84\ng88\nsg86\nF21.43\nsa(dp369\ng82\nI545\nsg83\nI876\nsg84\ng88\nsg86\nF21.449999999999999\nsa(dp370\ng82\nI548\nsg83\nI878\nsg84\ng88\nsg86\nF21.460000000000001\nsa(dp371\ng82\nI549\nsg83\nI880\nsg84\ng88\nsg86\nF21.469999999999999\nsa(dp372\ng82\nI551\nsg83\nI881\nsg84\ng88\nsg86\nF21.48\nsa(dp373\ng82\nI553\nsg83\nI881\nsg84\ng88\nsg86\nF21.489999999999998\nsa(dp374\ng82\nI553\nsg83\nI882\nsg84\ng88\nsg86\nF21.510000000000002\nsa(dp375\ng82\nI555\nsg83\nI883\nsg84\ng88\nsg86\nF21.530000000000001\nsa(dp376\ng82\nI557\nsg83\nI887\nsg84\ng88\nsg86\nF21.539999999999999\nsa(dp377\ng82\nI562\nsg83\nI894\nsg84\ng88\nsg86\nF21.550000000000001\nsa(dp378\ng82\nI567\nsg83\nI902\nsg84\ng88\nsg86\nF21.559999999999999\nsa(dp379\ng82\nI571\nsg83\nI910\nsg84\ng88\nsg86\nF21.57\nsa(dp380\ng82\nI575\nsg83\nI919\nsg84\ng88\nsg86\nF21.59\nsa(dp381\ng82\nI578\nsg83\nI924\nsg84\ng88\nsg86\nF21.609999999999999\nsa(dp382\ng82\nI581\nsg83\nI928\nsg84\ng88\nsg86\nF21.739999999999998\nsa(dp383\ng82\nI585\nsg83\nI934\nsg84\ng88\nsg86\nF21.75\nsa(dp384\ng82\nI590\nsg83\nI938\nsg84\ng88\nsg86\nF21.760000000000002\nsa(dp385\ng82\nI597\nsg83\nI943\nsg84\ng88\nsg86\nF21.77\nsa(dp386\ng82\nI604\nsg83\nI951\nsg84\ng88\nsg86\nF21.780000000000001\nsa(dp387\ng82\nI609\nsg83\nI959\nsg84\ng88\nsg86\nF21.789999999999999\nsa(dp388\ng82\nI619\nsg83\nI970\nsg84\ng88\nsg86\nF21.82\nsa(dp389\ng82\nI629\nsg83\nI983\nsg84\ng88\nsg86\nF21.84\nsa(dp390\ng82\nI636\nsg83\nI992\nsg84\ng88\nsg86\nF21.850000000000001\nsa(dp391\ng82\nI642\nsg83\nI1002\nsg84\ng88\nsg86\nF21.859999999999999\nsa(dp392\ng82\nI648\nsg83\nI1011\nsg84\ng88\nsg86\nF21.870000000000001\nsa(dp393\ng82\nI651\nsg83\nI1018\nsg84\ng88\nsg86\nF21.879999999999999\nsa(dp394\ng82\nI655\nsg83\nI1022\nsg84\ng88\nsg86\nF21.890000000000001\nsa(dp395\ng82\nI657\nsg83\nI1025\nsg84\ng88\nsg86\nF21.899999999999999\nsa(dp396\ng82\nI662\nsg83\nI1030\nsg84\ng88\nsg86\nF21.91\nsa(dp397\ng82\nI669\nsg83\nI1033\nsg84\ng88\nsg86\nF21.93\nsa(dp398\ng82\nI674\nsg83\nI1035\nsg84\ng88\nsg86\nF21.940000000000001\nsa(dp399\ng82\nI676\nsg83\nI1035\nsg84\ng88\nsg86\nF21.949999999999999\nsa(dp400\ng82\nI679\nsg83\nI1036\nsg84\ng88\nsg86\nF21.960000000000001\nsa(dp401\ng82\nI687\nsg83\nI1038\nsg84\ng88\nsg86\nF21.969999999999999\nsa(dp402\ng82\nI694\nsg83\nI1038\nsg84\ng88\nsg86\nF21.989999999999998\nsa(dp403\ng82\nI699\nsg83\nI1038\nsg84\ng88\nsg86\nF22.0\nsa(dp404\ng82\nI703\nsg83\nI1038\nsg84\ng88\nsg86\nF22.010000000000002\nsa(dp405\ng82\nI708\nsg83\nI1038\nsg84\ng88\nsg86\nF22.02\nsa(dp406\ng82\nI712\nsg83\nI1038\nsg84\ng88\nsg86\nF22.039999999999999\nsa(dp407\ng82\nI715\nsg83\nI1039\nsg84\ng88\nsg86\nF22.059999999999999\nsa(dp408\ng82\nI719\nsg83\nI1039\nsg84\ng88\nsg86\nF22.18\nsa(dp409\ng82\nI727\nsg83\nI1039\nsg84\ng88\nsg86\nF22.210000000000001\nsa(dp410\ng82\nI734\nsg83\nI1038\nsg84\ng88\nsg86\nF22.219999999999999\nsa(dp411\ng82\nI741\nsg83\nI1037\nsg84\ng88\nsg86\nF22.23\nsa(dp412\ng82\nI748\nsg83\nI1037\nsg84\ng88\nsg86\nF22.239999999999998\nsa(dp413\ng82\nI755\nsg83\nI1036\nsg84\ng88\nsg86\nF22.25\nsa(dp414\ng82\nI765\nsg83\nI1036\nsg84\ng88\nsg86\nF22.260000000000002\nsa(dp415\ng82\nI773\nsg83\nI1035\nsg84\ng88\nsg86\nF22.27\nsa(dp416\ng82\nI778\nsg83\nI1034\nsg84\ng88\nsg86\nF22.280000000000001\nsa(dp417\ng82\nI784\nsg83\nI1034\nsg84\ng88\nsg86\nF22.289999999999999\nsa(dp418\ng82\nI784\nsg83\nI1034\nsg84\ng130\nsg86\nF22.370000000000001\nsasS'mouse9'\np419\n(lp420\n(dp421\ng82\nI479\nsg83\nI216\nsg84\ng85\nsg86\nF11.390000000000001\nsa(dp422\ng82\nI480\nsg83\nI219\nsg84\ng88\nsg86\nF11.42\nsa(dp423\ng82\nI483\nsg83\nI229\nsg84\ng88\nsg86\nF11.43\nsa(dp424\ng82\nI499\nsg83\nI289\nsg84\ng88\nsg86\nF11.44\nsa(dp425\ng82\nI520\nsg83\nI402\nsg84\ng88\nsg86\nF11.449999999999999\nsa(dp426\ng82\nI531\nsg83\nI509\nsg84\ng88\nsg86\nF11.470000000000001\nsa(dp427\ng82\nI539\nsg83\nI624\nsg84\ng88\nsg86\nF11.48\nsa(dp428\ng82\nI542\nsg83\nI724\nsg84\ng88\nsg86\nF11.5\nsa(dp429\ng82\nI542\nsg83\nI809\nsg84\ng88\nsg86\nF11.51\nsa(dp430\ng82\nI539\nsg83\nI860\nsg84\ng88\nsg86\nF11.52\nsa(dp431\ng82\nI536\nsg83\nI885\nsg84\ng88\nsg86\nF11.529999999999999\nsa(dp432\ng82\nI534\nsg83\nI898\nsg84\ng88\nsg86\nF11.539999999999999\nsa(dp433\ng82\nI533\nsg83\nI901\nsg84\ng88\nsg86\nF11.56\nsa(dp434\ng82\nI534\nsg83\nI906\nsg84\ng88\nsg86\nF11.69\nsa(dp435\ng82\nI536\nsg83\nI920\nsg84\ng88\nsg86\nF11.699999999999999\nsa(dp436\ng82\nI537\nsg83\nI938\nsg84\ng88\nsg86\nF11.720000000000001\nsa(dp437\ng82\nI539\nsg83\nI963\nsg84\ng88\nsg86\nF11.73\nsa(dp438\ng82\nI540\nsg83\nI999\nsg84\ng88\nsg86\nF11.75\nsa(dp439\ng82\nI544\nsg83\nI1090\nsg84\ng88\nsg86\nF11.76\nsa(dp440\ng82\nI544\nsg83\nI1146\nsg84\ng88\nsg86\nF11.77\nsa(dp441\ng82\nI544\nsg83\nI1197\nsg84\ng88\nsg86\nF11.779999999999999\nsa(dp442\ng82\nI541\nsg83\nI1229\nsg84\ng88\nsg86\nF11.789999999999999\nsa(dp443\ng82\nI538\nsg83\nI1247\nsg84\ng88\nsg86\nF11.800000000000001\nsa(dp444\ng82\nI534\nsg83\nI1257\nsg84\ng88\nsg86\nF11.82\nsa(dp445\ng82\nI531\nsg83\nI1263\nsg84\ng88\nsg86\nF11.83\nsa(dp446\ng82\nI530\nsg83\nI1267\nsg84\ng88\nsg86\nF11.84\nsa(dp447\ng82\nI530\nsg83\nI1269\nsg84\ng88\nsg86\nF11.85\nsa(dp448\ng82\nI530\nsg83\nI1270\nsg84\ng88\nsg86\nF12.02\nsa(dp449\ng82\nI528\nsg83\nI1276\nsg84\ng88\nsg86\nF12.029999999999999\nsa(dp450\ng82\nI526\nsg83\nI1282\nsg84\ng88\nsg86\nF12.039999999999999\nsa(dp451\ng82\nI524\nsg83\nI1288\nsg84\ng88\nsg86\nF12.050000000000001\nsa(dp452\ng82\nI522\nsg83\nI1295\nsg84\ng88\nsg86\nF12.06\nsa(dp453\ng82\nI521\nsg83\nI1303\nsg84\ng88\nsg86\nF12.07\nsa(dp454\ng82\nI519\nsg83\nI1309\nsg84\ng88\nsg86\nF12.08\nsa(dp455\ng82\nI518\nsg83\nI1314\nsg84\ng88\nsg86\nF12.09\nsa(dp456\ng82\nI517\nsg83\nI1321\nsg84\ng88\nsg86\nF12.1\nsa(dp457\ng82\nI516\nsg83\nI1325\nsg84\ng88\nsg86\nF12.119999999999999\nsa(dp458\ng82\nI515\nsg83\nI1330\nsg84\ng88\nsg86\nF12.140000000000001\nsa(dp459\ng82\nI515\nsg83\nI1330\nsg84\ng130\nsg86\nF12.24\nsasS'mouse8'\np460\n(lp461\n(dp462\ng82\nI483\nsg83\nI203\nsg84\ng85\nsg86\nF9.9299999999999997\nsa(dp463\ng82\nI483\nsg83\nI210\nsg84\ng88\nsg86\nF9.9399999999999995\nsa(dp464\ng82\nI483\nsg83\nI259\nsg84\ng88\nsg86\nF9.9499999999999993\nsa(dp465\ng82\nI483\nsg83\nI370\nsg84\ng88\nsg86\nF9.9700000000000006\nsa(dp466\ng82\nI481\nsg83\nI479\nsg84\ng88\nsg86\nF9.9800000000000004\nsa(dp467\ng82\nI474\nsg83\nI582\nsg84\ng88\nsg86\nF10.0\nsa(dp468\ng82\nI466\nsg83\nI677\nsg84\ng88\nsg86\nF10.01\nsa(dp469\ng82\nI455\nsg83\nI743\nsg84\ng88\nsg86\nF10.029999999999999\nsa(dp470\ng82\nI448\nsg83\nI777\nsg84\ng88\nsg86\nF10.039999999999999\nsa(dp471\ng82\nI444\nsg83\nI794\nsg84\ng88\nsg86\nF10.050000000000001\nsa(dp472\ng82\nI443\nsg83\nI799\nsg84\ng88\nsg86\nF10.19\nsa(dp473\ng82\nI443\nsg83\nI802\nsg84\ng88\nsg86\nF10.199999999999999\nsa(dp474\ng82\nI444\nsg83\nI813\nsg84\ng88\nsg86\nF10.210000000000001\nsa(dp475\ng82\nI445\nsg83\nI827\nsg84\ng88\nsg86\nF10.220000000000001\nsa(dp476\ng82\nI445\nsg83\nI846\nsg84\ng88\nsg86\nF10.24\nsa(dp477\ng82\nI446\nsg83\nI864\nsg84\ng88\nsg86\nF10.25\nsa(dp478\ng82\nI447\nsg83\nI896\nsg84\ng88\nsg86\nF10.26\nsa(dp479\ng82\nI447\nsg83\nI924\nsg84\ng88\nsg86\nF10.279999999999999\nsa(dp480\ng82\nI447\nsg83\nI954\nsg84\ng88\nsg86\nF10.289999999999999\nsa(dp481\ng82\nI446\nsg83\nI972\nsg84\ng88\nsg86\nF10.300000000000001\nsa(dp482\ng82\nI445\nsg83\nI991\nsg84\ng88\nsg86\nF10.31\nsa(dp483\ng82\nI442\nsg83\nI1007\nsg84\ng88\nsg86\nF10.32\nsa(dp484\ng82\nI438\nsg83\nI1019\nsg84\ng88\nsg86\nF10.33\nsa(dp485\ng82\nI434\nsg83\nI1029\nsg84\ng88\nsg86\nF10.34\nsa(dp486\ng82\nI429\nsg83\nI1045\nsg84\ng88\nsg86\nF10.359999999999999\nsa(dp487\ng82\nI422\nsg83\nI1061\nsg84\ng88\nsg86\nF10.369999999999999\nsa(dp488\ng82\nI417\nsg83\nI1071\nsg84\ng88\nsg86\nF10.380000000000001\nsa(dp489\ng82\nI413\nsg83\nI1080\nsg84\ng88\nsg86\nF10.390000000000001\nsa(dp490\ng82\nI412\nsg83\nI1082\nsg84\ng88\nsg86\nF10.41\nsa(dp491\ng82\nI410\nsg83\nI1089\nsg84\ng88\nsg86\nF10.42\nsa(dp492\ng82\nI408\nsg83\nI1096\nsg84\ng88\nsg86\nF10.43\nsa(dp493\ng82\nI405\nsg83\nI1103\nsg84\ng88\nsg86\nF10.44\nsa(dp494\ng82\nI403\nsg83\nI1109\nsg84\ng88\nsg86\nF10.449999999999999\nsa(dp495\ng82\nI403\nsg83\nI1111\nsg84\ng88\nsg86\nF10.460000000000001\nsa(dp496\ng82\nI403\nsg83\nI1113\nsg84\ng88\nsg86\nF10.48\nsa(dp497\ng82\nI402\nsg83\nI1115\nsg84\ng88\nsg86\nF10.51\nsa(dp498\ng82\nI402\nsg83\nI1116\nsg84\ng88\nsg86\nF10.52\nsa(dp499\ng82\nI402\nsg83\nI1116\nsg84\ng130\nsg86\nF10.67\nsasS'mouse5'\np500\n(lp501\n(dp502\ng82\nI180\nsg83\nI423\nsg84\ng85\nsg86\nF6.6100000000000003\nsa(dp503\ng82\nI180\nsg83\nI425\nsg84\ng88\nsg86\nF6.6299999999999999\nsa(dp504\ng82\nI180\nsg83\nI429\nsg84\ng88\nsg86\nF6.6399999999999997\nsa(dp505\ng82\nI179\nsg83\nI432\nsg84\ng88\nsg86\nF6.6500000000000004\nsa(dp506\ng82\nI178\nsg83\nI435\nsg84\ng88\nsg86\nF6.6600000000000001\nsa(dp507\ng82\nI176\nsg83\nI438\nsg84\ng88\nsg86\nF6.6699999999999999\nsa(dp508\ng82\nI174\nsg83\nI443\nsg84\ng88\nsg86\nF6.6799999999999997\nsa(dp509\ng82\nI172\nsg83\nI447\nsg84\ng88\nsg86\nF6.7000000000000002\nsa(dp510\ng82\nI170\nsg83\nI452\nsg84\ng88\nsg86\nF6.7199999999999998\nsa(dp511\ng82\nI168\nsg83\nI456\nsg84\ng88\nsg86\nF6.7300000000000004\nsa(dp512\ng82\nI167\nsg83\nI459\nsg84\ng88\nsg86\nF6.7400000000000002\nsa(dp513\ng82\nI166\nsg83\nI462\nsg84\ng88\nsg86\nF6.75\nsa(dp514\ng82\nI166\nsg83\nI464\nsg84\ng88\nsg86\nF6.7599999999999998\nsa(dp515\ng82\nI166\nsg83\nI465\nsg84\ng88\nsg86\nF6.7699999999999996\nsa(dp516\ng82\nI166\nsg83\nI466\nsg84\ng88\nsg86\nF6.7800000000000002\nsa(dp517\ng82\nI165\nsg83\nI467\nsg84\ng88\nsg86\nF6.7999999999999998\nsa(dp518\ng82\nI165\nsg83\nI467\nsg84\ng130\nsg86\nF6.8600000000000003\nsasS'mouse4'\np519\n(lp520\n(dp521\ng82\nI114\nsg83\nI115\nsg84\ng85\nsg86\nF5.5300000000000002\nsa(dp522\ng82\nI114\nsg83\nI116\nsg84\ng88\nsg86\nF5.54\nsa(dp523\ng82\nI114\nsg83\nI123\nsg84\ng88\nsg86\nF5.5599999999999996\nsa(dp524\ng82\nI114\nsg83\nI137\nsg84\ng88\nsg86\nF5.5700000000000003\nsa(dp525\ng82\nI114\nsg83\nI183\nsg84\ng88\nsg86\nF5.5899999999999999\nsa(dp526\ng82\nI110\nsg83\nI249\nsg84\ng88\nsg86\nF5.5999999999999996\nsa(dp527\ng82\nI97\nsg83\nI335\nsg84\ng88\nsg86\nF5.6100000000000003\nsa(dp528\ng82\nI83\nsg83\nI395\nsg84\ng88\nsg86\nF5.6200000000000001\nsa(dp529\ng82\nI70\nsg83\nI454\nsg84\ng88\nsg86\nF5.6399999999999997\nsa(dp530\ng82\nI63\nsg83\nI492\nsg84\ng88\nsg86\nF5.6500000000000004\nsa(dp531\ng82\nI58\nsg83\nI516\nsg84\ng88\nsg86\nF5.6600000000000001\nsa(dp532\ng82\nI59\nsg83\nI532\nsg84\ng88\nsg86\nF5.6699999999999999\nsa(dp533\ng82\nI61\nsg83\nI537\nsg84\ng88\nsg86\nF5.8300000000000001\nsa(dp534\ng82\nI62\nsg83\nI538\nsg84\ng88\nsg86\nF5.8399999999999999\nsa(dp535\ng82\nI63\nsg83\nI539\nsg84\ng88\nsg86\nF5.8499999999999996\nsa(dp536\ng82\nI67\nsg83\nI543\nsg84\ng88\nsg86\nF5.8600000000000003\nsa(dp537\ng82\nI71\nsg83\nI547\nsg84\ng88\nsg86\nF5.8700000000000001\nsa(dp538\ng82\nI73\nsg83\nI551\nsg84\ng88\nsg86\nF5.8799999999999999\nsa(dp539\ng82\nI75\nsg83\nI553\nsg84\ng88\nsg86\nF5.9000000000000004\nsa(dp540\ng82\nI77\nsg83\nI555\nsg84\ng88\nsg86\nF5.9100000000000001\nsa(dp541\ng82\nI78\nsg83\nI558\nsg84\ng88\nsg86\nF5.9199999999999999\nsa(dp542\ng82\nI80\nsg83\nI561\nsg84\ng88\nsg86\nF5.9400000000000004\nsa(dp543\ng82\nI81\nsg83\nI563\nsg84\ng88\nsg86\nF5.9500000000000002\nsa(dp544\ng82\nI82\nsg83\nI564\nsg84\ng88\nsg86\nF5.96\nsa(dp545\ng82\nI82\nsg83\nI565\nsg84\ng88\nsg86\nF5.9699999999999998\nsa(dp546\ng82\nI82\nsg83\nI566\nsg84\ng88\nsg86\nF5.9800000000000004\nsa(dp547\ng82\nI82\nsg83\nI566\nsg84\ng130\nsg86\nF6.0199999999999996\nsasS'mouse7'\np548\n(lp549\n(dp550\ng82\nI571\nsg83\nI169\nsg84\ng85\nsg86\nF8.8499999999999996\nsa(dp551\ng82\nI568\nsg83\nI171\nsg84\ng88\nsg86\nF8.9000000000000004\nsa(dp552\ng82\nI564\nsg83\nI177\nsg84\ng88\nsg86\nF8.9100000000000001\nsa(dp553\ng82\nI558\nsg83\nI187\nsg84\ng88\nsg86\nF8.9199999999999999\nsa(dp554\ng82\nI545\nsg83\nI197\nsg84\ng88\nsg86\nF8.9499999999999993\nsa(dp555\ng82\nI522\nsg83\nI213\nsg84\ng88\nsg86\nF8.9600000000000009\nsa(dp556\ng82\nI456\nsg83\nI260\nsg84\ng88\nsg86\nF8.9700000000000006\nsa(dp557\ng82\nI403\nsg83\nI292\nsg84\ng88\nsg86\nF8.9800000000000004\nsa(dp558\ng82\nI353\nsg83\nI317\nsg84\ng88\nsg86\nF8.9900000000000002\nsa(dp559\ng82\nI321\nsg83\nI330\nsg84\ng88\nsg86\nF9.0\nsa(dp560\ng82\nI302\nsg83\nI338\nsg84\ng88\nsg86\nF9.0199999999999996\nsa(dp561\ng82\nI286\nsg83\nI342\nsg84\ng88\nsg86\nF9.0399999999999991\nsa(dp562\ng82\nI277\nsg83\nI345\nsg84\ng88\nsg86\nF9.0500000000000007\nsa(dp563\ng82\nI276\nsg83\nI345\nsg84\ng88\nsg86\nF9.1699999999999999\nsa(dp564\ng82\nI275\nsg83\nI345\nsg84\ng88\nsg86\nF9.1899999999999995\nsa(dp565\ng82\nI275\nsg83\nI343\nsg84\ng88\nsg86\nF9.1999999999999993\nsa(dp566\ng82\nI273\nsg83\nI340\nsg84\ng88\nsg86\nF9.2200000000000006\nsa(dp567\ng82\nI271\nsg83\nI334\nsg84\ng88\nsg86\nF9.2400000000000002\nsa(dp568\ng82\nI269\nsg83\nI328\nsg84\ng88\nsg86\nF9.25\nsa(dp569\ng82\nI268\nsg83\nI324\nsg84\ng88\nsg86\nF9.2599999999999998\nsa(dp570\ng82\nI267\nsg83\nI320\nsg84\ng88\nsg86\nF9.2799999999999994\nsa(dp571\ng82\nI267\nsg83\nI317\nsg84\ng88\nsg86\nF9.3000000000000007\nsa(dp572\ng82\nI265\nsg83\nI314\nsg84\ng88\nsg86\nF9.3100000000000005\nsa(dp573\ng82\nI265\nsg83\nI311\nsg84\ng88\nsg86\nF9.3200000000000003\nsa(dp574\ng82\nI264\nsg83\nI310\nsg84\ng88\nsg86\nF9.3300000000000001\nsa(dp575\ng82\nI264\nsg83\nI310\nsg84\ng130\nsg86\nF9.4299999999999997\nsasS'mouse6'\np576\n(lp577\n(dp578\ng82\nI319\nsg83\nI734\nsg84\ng85\nsg86\nF7.6100000000000003\nsa(dp579\ng82\nI320\nsg83\nI732\nsg84\ng88\nsg86\nF7.6299999999999999\nsa(dp580\ng82\nI322\nsg83\nI728\nsg84\ng88\nsg86\nF7.6399999999999997\nsa(dp581\ng82\nI326\nsg83\nI722\nsg84\ng88\nsg86\nF7.6600000000000001\nsa(dp582\ng82\nI333\nsg83\nI709\nsg84\ng88\nsg86\nF7.6699999999999999\nsa(dp583\ng82\nI367\nsg83\nI661\nsg84\ng88\nsg86\nF7.6799999999999997\nsa(dp584\ng82\nI417\nsg83\nI583\nsg84\ng88\nsg86\nF7.6900000000000004\nsa(dp585\ng82\nI457\nsg83\nI508\nsg84\ng88\nsg86\nF7.71\nsa(dp586\ng82\nI491\nsg83\nI429\nsg84\ng88\nsg86\nF7.7199999999999998\nsa(dp587\ng82\nI509\nsg83\nI377\nsg84\ng88\nsg86\nF7.7400000000000002\nsa(dp588\ng82\nI518\nsg83\nI349\nsg84\ng88\nsg86\nF7.75\nsa(dp589\ng82\nI523\nsg83\nI333\nsg84\ng88\nsg86\nF7.7599999999999998\nsa(dp590\ng82\nI527\nsg83\nI326\nsg84\ng88\nsg86\nF7.7800000000000002\nsa(dp591\ng82\nI527\nsg83\nI327\nsg84\ng88\nsg86\nF7.7999999999999998\nsa(dp592\ng82\nI528\nsg83\nI323\nsg84\ng88\nsg86\nF7.9299999999999997\nsa(dp593\ng82\nI532\nsg83\nI311\nsg84\ng88\nsg86\nF7.9400000000000004\nsa(dp594\ng82\nI535\nsg83\nI304\nsg84\ng88\nsg86\nF7.9500000000000002\nsa(dp595\ng82\nI537\nsg83\nI293\nsg84\ng88\nsg86\nF7.96\nsa(dp596\ng82\nI540\nsg83\nI283\nsg84\ng88\nsg86\nF7.9699999999999998\nsa(dp597\ng82\nI542\nsg83\nI273\nsg84\ng88\nsg86\nF7.9800000000000004\nsa(dp598\ng82\nI548\nsg83\nI246\nsg84\ng88\nsg86\nF8.0\nsa(dp599\ng82\nI548\nsg83\nI227\nsg84\ng88\nsg86\nF8.0099999999999998\nsa(dp600\ng82\nI546\nsg83\nI202\nsg84\ng88\nsg86\nF8.0199999999999996\nsa(dp601\ng82\nI542\nsg83\nI179\nsg84\ng88\nsg86\nF8.0299999999999994\nsa(dp602\ng82\nI536\nsg83\nI144\nsg84\ng88\nsg86\nF8.0399999999999991\nsa(dp603\ng82\nI532\nsg83\nI118\nsg84\ng88\nsg86\nF8.0600000000000005\nsa(dp604\ng82\nI529\nsg83\nI97\nsg84\ng88\nsg86\nF8.0700000000000003\nsa(dp605\ng82\nI528\nsg83\nI81\nsg84\ng88\nsg86\nF8.0800000000000001\nsa(dp606\ng82\nI527\nsg83\nI70\nsg84\ng88\nsg86\nF8.0999999999999996\nsa(dp607\ng82\nI527\nsg83\nI66\nsg84\ng88\nsg86\nF8.1099999999999994\nsa(dp608\ng82\nI527\nsg83\nI63\nsg84\ng88\nsg86\nF8.1199999999999992\nsa(dp609\ng82\nI527\nsg83\nI63\nsg84\ng130\nsg86\nF8.3000000000000007\nsasS'mouse1'\np610\n(lp611\n(dp612\ng82\nI525\nsg83\nI703\nsg84\ng85\nsg86\nF1.3100000000000001\nsa(dp613\ng82\nI525\nsg83\nI702\nsg84\ng88\nsg86\nF1.3300000000000001\nsa(dp614\ng82\nI526\nsg83\nI702\nsg84\ng88\nsg86\nF1.3400000000000001\nsa(dp615\ng82\nI528\nsg83\nI702\nsg84\ng88\nsg86\nF1.3600000000000001\nsa(dp616\ng82\nI534\nsg83\nI701\nsg84\ng88\nsg86\nF1.3700000000000001\nsa(dp617\ng82\nI563\nsg83\nI698\nsg84\ng88\nsg86\nF1.3899999999999999\nsa(dp618\ng82\nI613\nsg83\nI696\nsg84\ng88\nsg86\nF1.3999999999999999\nsa(dp619\ng82\nI660\nsg83\nI696\nsg84\ng88\nsg86\nF1.4099999999999999\nsa(dp620\ng82\nI718\nsg83\nI696\nsg84\ng88\nsg86\nF1.4199999999999999\nsa(dp621\ng82\nI746\nsg83\nI696\nsg84\ng88\nsg86\nF1.4299999999999999\nsa(dp622\ng82\nI765\nsg83\nI696\nsg84\ng88\nsg86\nF1.4399999999999999\nsa(dp623\ng82\nI778\nsg83\nI697\nsg84\ng88\nsg86\nF1.46\nsa(dp624\ng82\nI783\nsg83\nI698\nsg84\ng88\nsg86\nF1.47\nsa(dp625\ng82\nI789\nsg83\nI702\nsg84\ng88\nsg86\nF1.49\nsa(dp626\ng82\nI789\nsg83\nI697\nsg84\ng88\nsg86\nF1.96\nsa(dp627\ng82\nI786\nsg83\nI686\nsg84\ng88\nsg86\nF1.97\nsa(dp628\ng82\nI781\nsg83\nI669\nsg84\ng88\nsg86\nF1.98\nsa(dp629\ng82\nI773\nsg83\nI651\nsg84\ng88\nsg86\nF1.99\nsa(dp630\ng82\nI758\nsg83\nI617\nsg84\ng88\nsg86\nF2.0\nsa(dp631\ng82\nI700\nsg83\nI520\nsg84\ng88\nsg86\nF2.0099999999999998\nsa(dp632\ng82\nI654\nsg83\nI452\nsg84\ng88\nsg86\nF2.02\nsa(dp633\ng82\nI599\nsg83\nI387\nsg84\ng88\nsg86\nF2.0299999999999998\nsa(dp634\ng82\nI554\nsg83\nI337\nsg84\ng88\nsg86\nF2.04\nsa(dp635\ng82\nI522\nsg83\nI295\nsg84\ng88\nsg86\nF2.0600000000000001\nsa(dp636\ng82\nI504\nsg83\nI271\nsg84\ng88\nsg86\nF2.0699999999999998\nsa(dp637\ng82\nI495\nsg83\nI261\nsg84\ng88\nsg86\nF2.0800000000000001\nsa(dp638\ng82\nI492\nsg83\nI258\nsg84\ng88\nsg86\nF2.2000000000000002\nsa(dp639\ng82\nI486\nsg83\nI256\nsg84\ng88\nsg86\nF2.21\nsa(dp640\ng82\nI477\nsg83\nI250\nsg84\ng88\nsg86\nF2.2200000000000002\nsa(dp641\ng82\nI466\nsg83\nI245\nsg84\ng88\nsg86\nF2.23\nsa(dp642\ng82\nI451\nsg83\nI239\nsg84\ng88\nsg86\nF2.2400000000000002\nsa(dp643\ng82\nI406\nsg83\nI221\nsg84\ng88\nsg86\nF2.25\nsa(dp644\ng82\nI359\nsg83\nI202\nsg84\ng88\nsg86\nF2.2599999999999998\nsa(dp645\ng82\nI301\nsg83\nI180\nsg84\ng88\nsg86\nF2.27\nsa(dp646\ng82\nI267\nsg83\nI168\nsg84\ng88\nsg86\nF2.2799999999999998\nsa(dp647\ng82\nI245\nsg83\nI160\nsg84\ng88\nsg86\nF2.29\nsa(dp648\ng82\nI229\nsg83\nI154\nsg84\ng88\nsg86\nF2.3100000000000001\nsa(dp649\ng82\nI215\nsg83\nI150\nsg84\ng88\nsg86\nF2.3300000000000001\nsa(dp650\ng82\nI199\nsg83\nI148\nsg84\ng88\nsg86\nF2.3399999999999999\nsa(dp651\ng82\nI187\nsg83\nI146\nsg84\ng88\nsg86\nF2.3500000000000001\nsa(dp652\ng82\nI177\nsg83\nI143\nsg84\ng88\nsg86\nF2.3599999999999999\nsa(dp653\ng82\nI170\nsg83\nI142\nsg84\ng88\nsg86\nF2.3700000000000001\nsa(dp654\ng82\nI165\nsg83\nI140\nsg84\ng88\nsg86\nF2.3799999999999999\nsa(dp655\ng82\nI163\nsg83\nI138\nsg84\ng88\nsg86\nF2.3900000000000001\nsa(dp656\ng82\nI159\nsg83\nI136\nsg84\ng88\nsg86\nF2.3999999999999999\nsa(dp657\ng82\nI158\nsg83\nI135\nsg84\ng88\nsg86\nF2.4100000000000001\nsa(dp658\ng82\nI154\nsg83\nI132\nsg84\ng88\nsg86\nF2.4199999999999999\nsa(dp659\ng82\nI152\nsg83\nI130\nsg84\ng88\nsg86\nF2.4399999999999999\nsa(dp660\ng82\nI149\nsg83\nI128\nsg84\ng88\nsg86\nF2.4500000000000002\nsa(dp661\ng82\nI146\nsg83\nI125\nsg84\ng88\nsg86\nF2.4700000000000002\nsa(dp662\ng82\nI141\nsg83\nI121\nsg84\ng88\nsg86\nF2.48\nsa(dp663\ng82\nI137\nsg83\nI119\nsg84\ng88\nsg86\nF2.4900000000000002\nsa(dp664\ng82\nI133\nsg83\nI117\nsg84\ng88\nsg86\nF2.5\nsa(dp665\ng82\nI129\nsg83\nI114\nsg84\ng88\nsg86\nF2.5099999999999998\nsa(dp666\ng82\nI125\nsg83\nI111\nsg84\ng88\nsg86\nF2.52\nsa(dp667\ng82\nI122\nsg83\nI108\nsg84\ng88\nsg86\nF2.5299999999999998\nsa(dp668\ng82\nI120\nsg83\nI104\nsg84\ng88\nsg86\nF2.54\nsa(dp669\ng82\nI118\nsg83\nI103\nsg84\ng88\nsg86\nF2.5600000000000001\nsa(dp670\ng82\nI118\nsg83\nI102\nsg84\ng88\nsg86\nF2.5699999999999998\nsa(dp671\ng82\nI118\nsg83\nI102\nsg84\ng130\nsg86\nF2.6600000000000001\nsasS'mouse3'\np672\n(lp673\n(dp674\ng82\nI221\nsg83\nI489\nsg84\ng85\nsg86\nF4.1200000000000001\nsa(dp675\ng82\nI219\nsg83\nI490\nsg84\ng88\nsg86\nF4.1299999999999999\nsa(dp676\ng82\nI218\nsg83\nI491\nsg84\ng88\nsg86\nF4.1399999999999997\nsa(dp677\ng82\nI217\nsg83\nI493\nsg84\ng88\nsg86\nF4.1500000000000004\nsa(dp678\ng82\nI215\nsg83\nI496\nsg84\ng88\nsg86\nF4.1600000000000001\nsa(dp679\ng82\nI209\nsg83\nI506\nsg84\ng88\nsg86\nF4.1699999999999999\nsa(dp680\ng82\nI204\nsg83\nI514\nsg84\ng88\nsg86\nF4.1900000000000004\nsa(dp681\ng82\nI199\nsg83\nI523\nsg84\ng88\nsg86\nF4.2000000000000002\nsa(dp682\ng82\nI189\nsg83\nI538\nsg84\ng88\nsg86\nF4.21\nsa(dp683\ng82\nI177\nsg83\nI555\nsg84\ng88\nsg86\nF4.2199999999999998\nsa(dp684\ng82\nI167\nsg83\nI568\nsg84\ng88\nsg86\nF4.2300000000000004\nsa(dp685\ng82\nI159\nsg83\nI577\nsg84\ng88\nsg86\nF4.2400000000000002\nsa(dp686\ng82\nI152\nsg83\nI583\nsg84\ng88\nsg86\nF4.25\nsa(dp687\ng82\nI147\nsg83\nI589\nsg84\ng88\nsg86\nF4.2599999999999998\nsa(dp688\ng82\nI144\nsg83\nI595\nsg84\ng88\nsg86\nF4.2699999999999996\nsa(dp689\ng82\nI140\nsg83\nI603\nsg84\ng88\nsg86\nF4.2800000000000002\nsa(dp690\ng82\nI137\nsg83\nI609\nsg84\ng88\nsg86\nF4.3099999999999996\nsa(dp691\ng82\nI136\nsg83\nI614\nsg84\ng88\nsg86\nF4.3200000000000003\nsa(dp692\ng82\nI135\nsg83\nI616\nsg84\ng88\nsg86\nF4.3399999999999999\nsa(dp693\ng82\nI134\nsg83\nI619\nsg84\ng88\nsg86\nF4.3499999999999996\nsa(dp694\ng82\nI132\nsg83\nI621\nsg84\ng88\nsg86\nF4.3700000000000001\nsa(dp695\ng82\nI132\nsg83\nI622\nsg84\ng88\nsg86\nF4.3799999999999999\nsa(dp696\ng82\nI132\nsg83\nI624\nsg84\ng88\nsg86\nF4.3899999999999997\nsa(dp697\ng82\nI131\nsg83\nI626\nsg84\ng88\nsg86\nF4.4000000000000004\nsa(dp698\ng82\nI131\nsg83\nI627\nsg84\ng88\nsg86\nF4.4100000000000001\nsa(dp699\ng82\nI131\nsg83\nI628\nsg84\ng88\nsg86\nF4.4299999999999997\nsa(dp700\ng82\nI131\nsg83\nI632\nsg84\ng88\nsg86\nF4.5999999999999996\nsa(dp701\ng82\nI131\nsg83\nI636\nsg84\ng88\nsg86\nF4.6100000000000003\nsa(dp702\ng82\nI131\nsg83\nI640\nsg84\ng88\nsg86\nF4.6200000000000001\nsa(dp703\ng82\nI131\nsg83\nI646\nsg84\ng88\nsg86\nF4.6299999999999999\nsa(dp704\ng82\nI130\nsg83\nI652\nsg84\ng88\nsg86\nF4.6399999999999997\nsa(dp705\ng82\nI130\nsg83\nI657\nsg84\ng88\nsg86\nF4.6500000000000004\nsa(dp706\ng82\nI130\nsg83\nI660\nsg84\ng88\nsg86\nF4.6600000000000001\nsa(dp707\ng82\nI130\nsg83\nI661\nsg84\ng88\nsg86\nF4.6699999999999999\nsa(dp708\ng82\nI130\nsg83\nI662\nsg84\ng88\nsg86\nF4.6799999999999997\nsa(dp709\ng82\nI130\nsg83\nI663\nsg84\ng88\nsg86\nF4.7000000000000002\nsa(dp710\ng82\nI130\nsg83\nI665\nsg84\ng88\nsg86\nF4.71\nsa(dp711\ng82\nI130\nsg83\nI666\nsg84\ng88\nsg86\nF4.7199999999999998\nsa(dp712\ng82\nI130\nsg83\nI667\nsg84\ng88\nsg86\nF4.7599999999999998\nsa(dp713\ng82\nI130\nsg83\nI667\nsg84\ng130\nsg86\nF4.8799999999999999\nsasS'mouse2'\np714\n(lp715\n(dp716\ng82\nI214\nsg83\nI142\nsg84\ng85\nsg86\nF3.0699999999999998\nsa(dp717\ng82\nI214\nsg83\nI143\nsg84\ng88\nsg86\nF3.0800000000000001\nsa(dp718\ng82\nI214\nsg83\nI144\nsg84\ng88\nsg86\nF3.0899999999999999\nsa(dp719\ng82\nI214\nsg83\nI145\nsg84\ng88\nsg86\nF3.1099999999999999\nsa(dp720\ng82\nI212\nsg83\nI146\nsg84\ng88\nsg86\nF3.1299999999999999\nsa(dp721\ng82\nI209\nsg83\nI149\nsg84\ng88\nsg86\nF3.1400000000000001\nsa(dp722\ng82\nI204\nsg83\nI154\nsg84\ng88\nsg86\nF3.1600000000000001\nsa(dp723\ng82\nI198\nsg83\nI162\nsg84\ng88\nsg86\nF3.1699999999999999\nsa(dp724\ng82\nI186\nsg83\nI174\nsg84\ng88\nsg86\nF3.1800000000000002\nsa(dp725\ng82\nI172\nsg83\nI193\nsg84\ng88\nsg86\nF3.1899999999999999\nsa(dp726\ng82\nI161\nsg83\nI209\nsg84\ng88\nsg86\nF3.2000000000000002\nsa(dp727\ng82\nI154\nsg83\nI222\nsg84\ng88\nsg86\nF3.21\nsa(dp728\ng82\nI145\nsg83\nI241\nsg84\ng88\nsg86\nF3.2200000000000002\nsa(dp729\ng82\nI138\nsg83\nI256\nsg84\ng88\nsg86\nF3.23\nsa(dp730\ng82\nI130\nsg83\nI269\nsg84\ng88\nsg86\nF3.2400000000000002\nsa(dp731\ng82\nI124\nsg83\nI284\nsg84\ng88\nsg86\nF3.25\nsa(dp732\ng82\nI116\nsg83\nI301\nsg84\ng88\nsg86\nF3.2599999999999998\nsa(dp733\ng82\nI111\nsg83\nI315\nsg84\ng88\nsg86\nF3.2799999999999998\nsa(dp734\ng82\nI106\nsg83\nI326\nsg84\ng88\nsg86\nF3.29\nsa(dp735\ng82\nI102\nsg83\nI335\nsg84\ng88\nsg86\nF3.2999999999999998\nsa(dp736\ng82\nI95\nsg83\nI347\nsg84\ng88\nsg86\nF3.3100000000000001\nsa(dp737\ng82\nI86\nsg83\nI360\nsg84\ng88\nsg86\nF3.3199999999999998\nsa(dp738\ng82\nI81\nsg83\nI366\nsg84\ng88\nsg86\nF3.3300000000000001\nsa(dp739\ng82\nI77\nsg83\nI372\nsg84\ng88\nsg86\nF3.3500000000000001\nsa(dp740\ng82\nI72\nsg83\nI378\nsg84\ng88\nsg86\nF3.3599999999999999\nsa(dp741\ng82\nI70\nsg83\nI380\nsg84\ng88\nsg86\nF3.3700000000000001\nsa(dp742\ng82\nI68\nsg83\nI382\nsg84\ng88\nsg86\nF3.3799999999999999\nsa(dp743\ng82\nI67\nsg83\nI384\nsg84\ng88\nsg86\nF3.3900000000000001\nsa(dp744\ng82\nI67\nsg83\nI384\nsg84\ng130\nsg86\nF3.4900000000000002\nsasS'mouse28'\np745\n(lp746\n(dp747\ng82\nI791\nsg83\nI1024\nsg84\ng85\nsg86\nF35.060000000000002\nsa(dp748\ng82\nI791\nsg83\nI1023\nsg84\ng88\nsg86\nF35.079999999999998\nsa(dp749\ng82\nI791\nsg83\nI1022\nsg84\ng88\nsg86\nF35.090000000000003\nsa(dp750\ng82\nI791\nsg83\nI1016\nsg84\ng88\nsg86\nF35.100000000000001\nsa(dp751\ng82\nI792\nsg83\nI1008\nsg84\ng88\nsg86\nF35.109999999999999\nsa(dp752\ng82\nI794\nsg83\nI983\nsg84\ng88\nsg86\nF35.130000000000003\nsa(dp753\ng82\nI797\nsg83\nI943\nsg84\ng88\nsg86\nF35.149999999999999\nsa(dp754\ng82\nI799\nsg83\nI899\nsg84\ng88\nsg86\nF35.159999999999997\nsa(dp755\ng82\nI799\nsg83\nI821\nsg84\ng88\nsg86\nF35.170000000000002\nsa(dp756\ng82\nI798\nsg83\nI776\nsg84\ng88\nsg86\nF35.18\nsa(dp757\ng82\nI790\nsg83\nI721\nsg84\ng88\nsg86\nF35.189999999999998\nsa(dp758\ng82\nI784\nsg83\nI693\nsg84\ng88\nsg86\nF35.200000000000003\nsa(dp759\ng82\nI779\nsg83\nI676\nsg84\ng88\nsg86\nF35.210000000000001\nsa(dp760\ng82\nI773\nsg83\nI665\nsg84\ng88\nsg86\nF35.229999999999997\nsa(dp761\ng82\nI767\nsg83\nI658\nsg84\ng88\nsg86\nF35.240000000000002\nsa(dp762\ng82\nI765\nsg83\nI655\nsg84\ng88\nsg86\nF35.25\nsa(dp763\ng82\nI764\nsg83\nI654\nsg84\ng88\nsg86\nF35.399999999999999\nsa(dp764\ng82\nI762\nsg83\nI650\nsg84\ng88\nsg86\nF35.409999999999997\nsa(dp765\ng82\nI759\nsg83\nI643\nsg84\ng88\nsg86\nF35.43\nsa(dp766\ng82\nI751\nsg83\nI636\nsg84\ng88\nsg86\nF35.460000000000001\nsa(dp767\ng82\nI745\nsg83\nI630\nsg84\ng88\nsg86\nF35.469999999999999\nsa(dp768\ng82\nI740\nsg83\nI623\nsg84\ng88\nsg86\nF35.490000000000002\nsa(dp769\ng82\nI732\nsg83\nI612\nsg84\ng88\nsg86\nF35.509999999999998\nsa(dp770\ng82\nI722\nsg83\nI602\nsg84\ng88\nsg86\nF35.520000000000003\nsa(dp771\ng82\nI711\nsg83\nI592\nsg84\ng88\nsg86\nF35.539999999999999\nsa(dp772\ng82\nI704\nsg83\nI586\nsg84\ng88\nsg86\nF35.549999999999997\nsa(dp773\ng82\nI699\nsg83\nI580\nsg84\ng88\nsg86\nF35.560000000000002\nsa(dp774\ng82\nI693\nsg83\nI572\nsg84\ng88\nsg86\nF35.57\nsa(dp775\ng82\nI687\nsg83\nI565\nsg84\ng88\nsg86\nF35.579999999999998\nsa(dp776\ng82\nI681\nsg83\nI556\nsg84\ng88\nsg86\nF35.600000000000001\nsa(dp777\ng82\nI674\nsg83\nI548\nsg84\ng88\nsg86\nF35.609999999999999\nsa(dp778\ng82\nI668\nsg83\nI542\nsg84\ng88\nsg86\nF35.630000000000003\nsa(dp779\ng82\nI665\nsg83\nI541\nsg84\ng88\nsg86\nF35.659999999999997\nsa(dp780\ng82\nI664\nsg83\nI540\nsg84\ng88\nsg86\nF35.68\nsa(dp781\ng82\nI664\nsg83\nI540\nsg84\ng130\nsg86\nF35.759999999999998\nsasS'mouse29'\np782\n(lp783\n(dp784\ng82\nI521\nsg83\nI54\nsg84\ng85\nsg86\nF36.490000000000002\nsa(dp785\ng82\nI527\nsg83\nI73\nsg84\ng88\nsg86\nF36.5\nsa(dp786\ng82\nI533\nsg83\nI90\nsg84\ng88\nsg86\nF36.509999999999998\nsa(dp787\ng82\nI554\nsg83\nI141\nsg84\ng88\nsg86\nF36.520000000000003\nsa(dp788\ng82\nI588\nsg83\nI201\nsg84\ng88\nsg86\nF36.530000000000001\nsa(dp789\ng82\nI626\nsg83\nI270\nsg84\ng88\nsg86\nF36.549999999999997\nsa(dp790\ng82\nI646\nsg83\nI316\nsg84\ng88\nsg86\nF36.560000000000002\nsa(dp791\ng82\nI661\nsg83\nI363\nsg84\ng88\nsg86\nF36.57\nsa(dp792\ng82\nI670\nsg83\nI393\nsg84\ng88\nsg86\nF36.579999999999998\nsa(dp793\ng82\nI675\nsg83\nI420\nsg84\ng88\nsg86\nF36.590000000000003\nsa(dp794\ng82\nI677\nsg83\nI447\nsg84\ng88\nsg86\nF36.609999999999999\nsa(dp795\ng82\nI677\nsg83\nI469\nsg84\ng88\nsg86\nF36.619999999999997\nsa(dp796\ng82\nI677\nsg83\nI493\nsg84\ng88\nsg86\nF36.630000000000003\nsa(dp797\ng82\nI676\nsg83\nI512\nsg84\ng88\nsg86\nF36.640000000000001\nsa(dp798\ng82\nI675\nsg83\nI525\nsg84\ng88\nsg86\nF36.649999999999999\nsa(dp799\ng82\nI676\nsg83\nI528\nsg84\ng88\nsg86\nF36.659999999999997\nsa(dp800\ng82\nI682\nsg83\nI530\nsg84\ng88\nsg86\nF36.68\nsa(dp801\ng82\nI683\nsg83\nI535\nsg84\ng88\nsg86\nF36.780000000000001\nsa(dp802\ng82\nI685\nsg83\nI543\nsg84\ng88\nsg86\nF36.799999999999997\nsa(dp803\ng82\nI687\nsg83\nI556\nsg84\ng88\nsg86\nF36.810000000000002\nsa(dp804\ng82\nI692\nsg83\nI568\nsg84\ng88\nsg86\nF36.829999999999998\nsa(dp805\ng82\nI698\nsg83\nI583\nsg84\ng88\nsg86\nF36.840000000000003\nsa(dp806\ng82\nI708\nsg83\nI609\nsg84\ng88\nsg86\nF36.859999999999999\nsa(dp807\ng82\nI716\nsg83\nI632\nsg84\ng88\nsg86\nF36.869999999999997\nsa(dp808\ng82\nI721\nsg83\nI655\nsg84\ng88\nsg86\nF36.890000000000001\nsa(dp809\ng82\nI727\nsg83\nI676\nsg84\ng88\nsg86\nF36.899999999999999\nsa(dp810\ng82\nI730\nsg83\nI692\nsg84\ng88\nsg86\nF36.920000000000002\nsa(dp811\ng82\nI733\nsg83\nI708\nsg84\ng88\nsg86\nF36.93\nsa(dp812\ng82\nI735\nsg83\nI717\nsg84\ng88\nsg86\nF36.939999999999998\nsa(dp813\ng82\nI737\nsg83\nI734\nsg84\ng88\nsg86\nF36.960000000000001\nsa(dp814\ng82\nI741\nsg83\nI748\nsg84\ng88\nsg86\nF36.969999999999999\nsa(dp815\ng82\nI744\nsg83\nI756\nsg84\ng88\nsg86\nF36.979999999999997\nsa(dp816\ng82\nI748\nsg83\nI763\nsg84\ng88\nsg86\nF36.990000000000002\nsa(dp817\ng82\nI749\nsg83\nI765\nsg84\ng88\nsg86\nF37.0\nsa(dp818\ng82\nI751\nsg83\nI767\nsg84\ng88\nsg86\nF37.030000000000001\nsa(dp819\ng82\nI754\nsg83\nI773\nsg84\ng88\nsg86\nF37.039999999999999\nsa(dp820\ng82\nI756\nsg83\nI777\nsg84\ng88\nsg86\nF37.049999999999997\nsa(dp821\ng82\nI757\nsg83\nI780\nsg84\ng88\nsg86\nF37.060000000000002\nsa(dp822\ng82\nI758\nsg83\nI784\nsg84\ng88\nsg86\nF37.07\nsa(dp823\ng82\nI760\nsg83\nI786\nsg84\ng88\nsg86\nF37.100000000000001\nsa(dp824\ng82\nI761\nsg83\nI788\nsg84\ng88\nsg86\nF37.109999999999999\nsa(dp825\ng82\nI761\nsg83\nI790\nsg84\ng88\nsg86\nF37.119999999999997\nsa(dp826\ng82\nI761\nsg83\nI791\nsg84\ng88\nsg86\nF37.130000000000003\nsa(dp827\ng82\nI763\nsg83\nI791\nsg84\ng88\nsg86\nF37.340000000000003\nsa(dp828\ng82\nI764\nsg83\nI791\nsg84\ng88\nsg86\nF37.359999999999999\nsa(dp829\ng82\nI764\nsg83\nI790\nsg84\ng88\nsg86\nF37.390000000000001\nsa(dp830\ng82\nI765\nsg83\nI790\nsg84\ng88\nsg86\nF37.420000000000002\nsa(dp831\ng82\nI765\nsg83\nI790\nsg84\ng130\nsg86\nF37.490000000000002\nsasS'mouse24'\np832\n(lp833\n(dp834\ng82\nI544\nsg83\nI963\nsg84\ng85\nsg86\nF30.370000000000001\nsa(dp835\ng82\nI544\nsg83\nI962\nsg84\ng88\nsg86\nF30.390000000000001\nsa(dp836\ng82\nI543\nsg83\nI962\nsg84\ng88\nsg86\nF30.399999999999999\nsa(dp837\ng82\nI539\nsg83\nI960\nsg84\ng88\nsg86\nF30.41\nsa(dp838\ng82\nI536\nsg83\nI960\nsg84\ng88\nsg86\nF30.420000000000002\nsa(dp839\ng82\nI532\nsg83\nI958\nsg84\ng88\nsg86\nF30.43\nsa(dp840\ng82\nI524\nsg83\nI957\nsg84\ng88\nsg86\nF30.440000000000001\nsa(dp841\ng82\nI516\nsg83\nI953\nsg84\ng88\nsg86\nF30.460000000000001\nsa(dp842\ng82\nI499\nsg83\nI946\nsg84\ng88\nsg86\nF30.48\nsa(dp843\ng82\nI468\nsg83\nI934\nsg84\ng88\nsg86\nF30.489999999999998\nsa(dp844\ng82\nI452\nsg83\nI926\nsg84\ng88\nsg86\nF30.5\nsa(dp845\ng82\nI434\nsg83\nI919\nsg84\ng88\nsg86\nF30.510000000000002\nsa(dp846\ng82\nI414\nsg83\nI913\nsg84\ng88\nsg86\nF30.52\nsa(dp847\ng82\nI398\nsg83\nI908\nsg84\ng88\nsg86\nF30.530000000000001\nsa(dp848\ng82\nI378\nsg83\nI904\nsg84\ng88\nsg86\nF30.550000000000001\nsa(dp849\ng82\nI359\nsg83\nI902\nsg84\ng88\nsg86\nF30.559999999999999\nsa(dp850\ng82\nI343\nsg83\nI901\nsg84\ng88\nsg86\nF30.57\nsa(dp851\ng82\nI335\nsg83\nI900\nsg84\ng88\nsg86\nF30.579999999999998\nsa(dp852\ng82\nI323\nsg83\nI900\nsg84\ng88\nsg86\nF30.600000000000001\nsa(dp853\ng82\nI308\nsg83\nI900\nsg84\ng88\nsg86\nF30.609999999999999\nsa(dp854\ng82\nI295\nsg83\nI900\nsg84\ng88\nsg86\nF30.620000000000001\nsa(dp855\ng82\nI284\nsg83\nI900\nsg84\ng88\nsg86\nF30.629999999999999\nsa(dp856\ng82\nI273\nsg83\nI900\nsg84\ng88\nsg86\nF30.640000000000001\nsa(dp857\ng82\nI262\nsg83\nI901\nsg84\ng88\nsg86\nF30.649999999999999\nsa(dp858\ng82\nI254\nsg83\nI902\nsg84\ng88\nsg86\nF30.66\nsa(dp859\ng82\nI253\nsg83\nI902\nsg84\ng88\nsg86\nF30.670000000000002\nsa(dp860\ng82\nI251\nsg83\nI903\nsg84\ng88\nsg86\nF30.68\nsa(dp861\ng82\nI246\nsg83\nI904\nsg84\ng88\nsg86\nF30.850000000000001\nsa(dp862\ng82\nI242\nsg83\nI904\nsg84\ng88\nsg86\nF30.859999999999999\nsa(dp863\ng82\nI239\nsg83\nI903\nsg84\ng88\nsg86\nF30.870000000000001\nsa(dp864\ng82\nI233\nsg83\nI902\nsg84\ng88\nsg86\nF30.879999999999999\nsa(dp865\ng82\nI226\nsg83\nI901\nsg84\ng88\nsg86\nF30.890000000000001\nsa(dp866\ng82\nI219\nsg83\nI900\nsg84\ng88\nsg86\nF30.899999999999999\nsa(dp867\ng82\nI213\nsg83\nI900\nsg84\ng88\nsg86\nF30.91\nsa(dp868\ng82\nI200\nsg83\nI898\nsg84\ng88\nsg86\nF30.93\nsa(dp869\ng82\nI190\nsg83\nI897\nsg84\ng88\nsg86\nF30.940000000000001\nsa(dp870\ng82\nI183\nsg83\nI896\nsg84\ng88\nsg86\nF30.949999999999999\nsa(dp871\ng82\nI178\nsg83\nI895\nsg84\ng88\nsg86\nF30.960000000000001\nsa(dp872\ng82\nI175\nsg83\nI895\nsg84\ng88\nsg86\nF30.98\nsa(dp873\ng82\nI173\nsg83\nI895\nsg84\ng88\nsg86\nF30.989999999999998\nsa(dp874\ng82\nI172\nsg83\nI894\nsg84\ng88\nsg86\nF31.0\nsa(dp875\ng82\nI171\nsg83\nI894\nsg84\ng88\nsg86\nF31.02\nsa(dp876\ng82\nI171\nsg83\nI893\nsg84\ng88\nsg86\nF31.050000000000001\nsa(dp877\ng82\nI171\nsg83\nI892\nsg84\ng88\nsg86\nF31.059999999999999\nsa(dp878\ng82\nI171\nsg83\nI892\nsg84\ng130\nsg86\nF31.100000000000001\nsasS'mouse25'\np879\n(lp880\n(dp881\ng82\nI239\nsg83\nI746\nsg84\ng85\nsg86\nF31.640000000000001\nsa(dp882\ng82\nI239\nsg83\nI743\nsg84\ng88\nsg86\nF31.649999999999999\nsa(dp883\ng82\nI240\nsg83\nI740\nsg84\ng88\nsg86\nF31.66\nsa(dp884\ng82\nI244\nsg83\nI731\nsg84\ng88\nsg86\nF31.670000000000002\nsa(dp885\ng82\nI258\nsg83\nI706\nsg84\ng88\nsg86\nF31.68\nsa(dp886\ng82\nI299\nsg83\nI653\nsg84\ng88\nsg86\nF31.699999999999999\nsa(dp887\ng82\nI331\nsg83\nI607\nsg84\ng88\nsg86\nF31.719999999999999\nsa(dp888\ng82\nI360\nsg83\nI570\nsg84\ng88\nsg86\nF31.73\nsa(dp889\ng82\nI393\nsg83\nI523\nsg84\ng88\nsg86\nF31.739999999999998\nsa(dp890\ng82\nI409\nsg83\nI492\nsg84\ng88\nsg86\nF31.75\nsa(dp891\ng82\nI419\nsg83\nI472\nsg84\ng88\nsg86\nF31.760000000000002\nsa(dp892\ng82\nI425\nsg83\nI459\nsg84\ng88\nsg86\nF31.77\nsa(dp893\ng82\nI428\nsg83\nI454\nsg84\ng88\nsg86\nF31.789999999999999\nsa(dp894\ng82\nI428\nsg83\nI454\nsg84\ng130\nsg86\nF32.009999999999998\nsasS'mouse26'\np895\n(lp896\n(dp897\ng82\nI262\nsg83\nI311\nsg84\ng85\nsg86\nF32.68\nsa(dp898\ng82\nI262\nsg83\nI312\nsg84\ng88\nsg86\nF32.710000000000001\nsa(dp899\ng82\nI262\nsg83\nI316\nsg84\ng88\nsg86\nF32.729999999999997\nsa(dp900\ng82\nI263\nsg83\nI324\nsg84\ng88\nsg86\nF32.740000000000002\nsa(dp901\ng82\nI265\nsg83\nI333\nsg84\ng88\nsg86\nF32.759999999999998\nsa(dp902\ng82\nI268\nsg83\nI348\nsg84\ng88\nsg86\nF32.770000000000003\nsa(dp903\ng82\nI270\nsg83\nI372\nsg84\ng88\nsg86\nF32.780000000000001\nsa(dp904\ng82\nI275\nsg83\nI417\nsg84\ng88\nsg86\nF32.789999999999999\nsa(dp905\ng82\nI281\nsg83\nI493\nsg84\ng88\nsg86\nF32.799999999999997\nsa(dp906\ng82\nI284\nsg83\nI541\nsg84\ng88\nsg86\nF32.810000000000002\nsa(dp907\ng82\nI284\nsg83\nI601\nsg84\ng88\nsg86\nF32.82\nsa(dp908\ng82\nI284\nsg83\nI631\nsg84\ng88\nsg86\nF32.829999999999998\nsa(dp909\ng82\nI282\nsg83\nI651\nsg84\ng88\nsg86\nF32.850000000000001\nsa(dp910\ng82\nI280\nsg83\nI663\nsg84\ng88\nsg86\nF32.859999999999999\nsa(dp911\ng82\nI277\nsg83\nI671\nsg84\ng88\nsg86\nF32.890000000000001\nsa(dp912\ng82\nI276\nsg83\nI678\nsg84\ng88\nsg86\nF32.899999999999999\nsa(dp913\ng82\nI275\nsg83\nI683\nsg84\ng88\nsg86\nF32.909999999999997\nsa(dp914\ng82\nI274\nsg83\nI691\nsg84\ng88\nsg86\nF32.920000000000002\nsa(dp915\ng82\nI274\nsg83\nI698\nsg84\ng88\nsg86\nF32.939999999999998\nsa(dp916\ng82\nI274\nsg83\nI704\nsg84\ng88\nsg86\nF32.950000000000003\nsa(dp917\ng82\nI274\nsg83\nI705\nsg84\ng88\nsg86\nF32.969999999999999\nsa(dp918\ng82\nI274\nsg83\nI706\nsg84\ng88\nsg86\nF32.990000000000002\nsa(dp919\ng82\nI274\nsg83\nI708\nsg84\ng88\nsg86\nF33.0\nsa(dp920\ng82\nI274\nsg83\nI711\nsg84\ng88\nsg86\nF33.009999999999998\nsa(dp921\ng82\nI274\nsg83\nI713\nsg84\ng88\nsg86\nF33.030000000000001\nsa(dp922\ng82\nI274\nsg83\nI716\nsg84\ng88\nsg86\nF33.039999999999999\nsa(dp923\ng82\nI274\nsg83\nI718\nsg84\ng88\nsg86\nF33.049999999999997\nsa(dp924\ng82\nI274\nsg83\nI719\nsg84\ng88\nsg86\nF33.060000000000002\nsa(dp925\ng82\nI274\nsg83\nI720\nsg84\ng88\nsg86\nF33.07\nsa(dp926\ng82\nI274\nsg83\nI721\nsg84\ng88\nsg86\nF33.100000000000001\nsa(dp927\ng82\nI274\nsg83\nI721\nsg84\ng130\nsg86\nF33.130000000000003\nsasS'mouse27'\np928\n(lp929\n(dp930\ng82\nI121\nsg83\nI212\nsg84\ng85\nsg86\nF33.700000000000003\nsa(dp931\ng82\nI122\nsg83\nI211\nsg84\ng88\nsg86\nF33.710000000000001\nsa(dp932\ng82\nI143\nsg83\nI224\nsg84\ng88\nsg86\nF33.719999999999999\nsa(dp933\ng82\nI155\nsg83\nI232\nsg84\ng88\nsg86\nF33.729999999999997\nsa(dp934\ng82\nI178\nsg83\nI249\nsg84\ng88\nsg86\nF33.740000000000002\nsa(dp935\ng82\nI215\nsg83\nI281\nsg84\ng88\nsg86\nF33.75\nsa(dp936\ng82\nI255\nsg83\nI312\nsg84\ng88\nsg86\nF33.770000000000003\nsa(dp937\ng82\nI306\nsg83\nI362\nsg84\ng88\nsg86\nF33.780000000000001\nsa(dp938\ng82\nI332\nsg83\nI392\nsg84\ng88\nsg86\nF33.789999999999999\nsa(dp939\ng82\nI355\nsg83\nI420\nsg84\ng88\nsg86\nF33.799999999999997\nsa(dp940\ng82\nI374\nsg83\nI448\nsg84\ng88\nsg86\nF33.82\nsa(dp941\ng82\nI391\nsg83\nI472\nsg84\ng88\nsg86\nF33.829999999999998\nsa(dp942\ng82\nI402\nsg83\nI489\nsg84\ng88\nsg86\nF33.840000000000003\nsa(dp943\ng82\nI411\nsg83\nI502\nsg84\ng88\nsg86\nF33.850000000000001\nsa(dp944\ng82\nI419\nsg83\nI519\nsg84\ng88\nsg86\nF33.859999999999999\nsa(dp945\ng82\nI431\nsg83\nI539\nsg84\ng88\nsg86\nF33.869999999999997\nsa(dp946\ng82\nI445\nsg83\nI555\nsg84\ng88\nsg86\nF33.890000000000001\nsa(dp947\ng82\nI456\nsg83\nI565\nsg84\ng88\nsg86\nF33.899999999999999\nsa(dp948\ng82\nI466\nsg83\nI577\nsg84\ng88\nsg86\nF33.909999999999997\nsa(dp949\ng82\nI471\nsg83\nI589\nsg84\ng88\nsg86\nF33.920000000000002\nsa(dp950\ng82\nI478\nsg83\nI601\nsg84\ng88\nsg86\nF33.93\nsa(dp951\ng82\nI482\nsg83\nI608\nsg84\ng88\nsg86\nF33.939999999999998\nsa(dp952\ng82\nI487\nsg83\nI615\nsg84\ng88\nsg86\nF33.950000000000003\nsa(dp953\ng82\nI489\nsg83\nI619\nsg84\ng88\nsg86\nF33.960000000000001\nsa(dp954\ng82\nI493\nsg83\nI625\nsg84\ng88\nsg86\nF33.969999999999999\nsa(dp955\ng82\nI495\nsg83\nI632\nsg84\ng88\nsg86\nF33.979999999999997\nsa(dp956\ng82\nI498\nsg83\nI639\nsg84\ng88\nsg86\nF33.990000000000002\nsa(dp957\ng82\nI499\nsg83\nI643\nsg84\ng88\nsg86\nF34.020000000000003\nsa(dp958\ng82\nI500\nsg83\nI644\nsg84\ng88\nsg86\nF34.030000000000001\nsa(dp959\ng82\nI501\nsg83\nI646\nsg84\ng88\nsg86\nF34.039999999999999\nsa(dp960\ng82\nI502\nsg83\nI648\nsg84\ng88\nsg86\nF34.049999999999997\nsa(dp961\ng82\nI502\nsg83\nI650\nsg84\ng88\nsg86\nF34.07\nsa(dp962\ng82\nI503\nsg83\nI651\nsg84\ng88\nsg86\nF34.079999999999998\nsa(dp963\ng82\nI503\nsg83\nI652\nsg84\ng88\nsg86\nF34.090000000000003\nsa(dp964\ng82\nI503\nsg83\nI652\nsg84\ng130\nsg86\nF34.130000000000003\nsasS'mouse20'\np965\n(lp966\n(dp967\ng82\nI469\nsg83\nI607\nsg84\ng85\nsg86\nF26.09\nsa(dp968\ng82\nI471\nsg83\nI609\nsg84\ng88\nsg86\nF26.100000000000001\nsa(dp969\ng82\nI473\nsg83\nI614\nsg84\ng88\nsg86\nF26.109999999999999\nsa(dp970\ng82\nI476\nsg83\nI626\nsg84\ng88\nsg86\nF26.129999999999999\nsa(dp971\ng82\nI479\nsg83\nI637\nsg84\ng88\nsg86\nF26.140000000000001\nsa(dp972\ng82\nI484\nsg83\nI665\nsg84\ng88\nsg86\nF26.149999999999999\nsa(dp973\ng82\nI487\nsg83\nI686\nsg84\ng88\nsg86\nF26.16\nsa(dp974\ng82\nI491\nsg83\nI702\nsg84\ng88\nsg86\nF26.170000000000002\nsa(dp975\ng82\nI496\nsg83\nI723\nsg84\ng88\nsg86\nF26.190000000000001\nsa(dp976\ng82\nI501\nsg83\nI738\nsg84\ng88\nsg86\nF26.210000000000001\nsa(dp977\ng82\nI506\nsg83\nI750\nsg84\ng88\nsg86\nF26.219999999999999\nsa(dp978\ng82\nI509\nsg83\nI760\nsg84\ng88\nsg86\nF26.23\nsa(dp979\ng82\nI511\nsg83\nI772\nsg84\ng88\nsg86\nF26.239999999999998\nsa(dp980\ng82\nI512\nsg83\nI787\nsg84\ng88\nsg86\nF26.25\nsa(dp981\ng82\nI512\nsg83\nI798\nsg84\ng88\nsg86\nF26.260000000000002\nsa(dp982\ng82\nI509\nsg83\nI807\nsg84\ng88\nsg86\nF26.27\nsa(dp983\ng82\nI507\nsg83\nI811\nsg84\ng88\nsg86\nF26.280000000000001\nsa(dp984\ng82\nI505\nsg83\nI817\nsg84\ng88\nsg86\nF26.300000000000001\nsa(dp985\ng82\nI503\nsg83\nI818\nsg84\ng88\nsg86\nF26.329999999999998\nsa(dp986\ng82\nI502\nsg83\nI820\nsg84\ng88\nsg86\nF26.350000000000001\nsa(dp987\ng82\nI502\nsg83\nI821\nsg84\ng88\nsg86\nF26.359999999999999\nsa(dp988\ng82\nI501\nsg83\nI821\nsg84\ng88\nsg86\nF26.370000000000001\nsa(dp989\ng82\nI501\nsg83\nI822\nsg84\ng88\nsg86\nF26.379999999999999\nsa(dp990\ng82\nI501\nsg83\nI822\nsg84\ng130\nsg86\nF26.449999999999999\nsasS'mouse21'\np991\n(lp992\n(dp993\ng82\nI528\nsg83\nI703\nsg84\ng85\nsg86\nF26.879999999999999\nsa(dp994\ng82\nI534\nsg83\nI709\nsg84\ng88\nsg86\nF26.890000000000001\nsa(dp995\ng82\nI538\nsg83\nI714\nsg84\ng88\nsg86\nF26.899999999999999\nsa(dp996\ng82\nI545\nsg83\nI727\nsg84\ng88\nsg86\nF26.91\nsa(dp997\ng82\nI558\nsg83\nI746\nsg84\ng88\nsg86\nF26.93\nsa(dp998\ng82\nI569\nsg83\nI763\nsg84\ng88\nsg86\nF26.940000000000001\nsa(dp999\ng82\nI581\nsg83\nI785\nsg84\ng88\nsg86\nF26.960000000000001\nsa(dp1000\ng82\nI589\nsg83\nI802\nsg84\ng88\nsg86\nF26.969999999999999\nsa(dp1001\ng82\nI599\nsg83\nI817\nsg84\ng88\nsg86\nF26.98\nsa(dp1002\ng82\nI610\nsg83\nI835\nsg84\ng88\nsg86\nF26.989999999999998\nsa(dp1003\ng82\nI622\nsg83\nI853\nsg84\ng88\nsg86\nF27.0\nsa(dp1004\ng82\nI631\nsg83\nI868\nsg84\ng88\nsg86\nF27.010000000000002\nsa(dp1005\ng82\nI640\nsg83\nI880\nsg84\ng88\nsg86\nF27.02\nsa(dp1006\ng82\nI645\nsg83\nI889\nsg84\ng88\nsg86\nF27.030000000000001\nsa(dp1007\ng82\nI649\nsg83\nI895\nsg84\ng88\nsg86\nF27.039999999999999\nsa(dp1008\ng82\nI652\nsg83\nI904\nsg84\ng88\nsg86\nF27.050000000000001\nsa(dp1009\ng82\nI654\nsg83\nI911\nsg84\ng88\nsg86\nF27.079999999999998\nsa(dp1010\ng82\nI655\nsg83\nI915\nsg84\ng88\nsg86\nF27.09\nsa(dp1011\ng82\nI658\nsg83\nI923\nsg84\ng88\nsg86\nF27.100000000000001\nsa(dp1012\ng82\nI659\nsg83\nI928\nsg84\ng88\nsg86\nF27.120000000000001\nsa(dp1013\ng82\nI659\nsg83\nI928\nsg84\ng130\nsg86\nF27.280000000000001\nsasS'mouse22'\np1014\n(lp1015\n(dp1016\ng82\nI547\nsg83\nI584\nsg84\ng85\nsg86\nF27.989999999999998\nsa(dp1017\ng82\nI549\nsg83\nI586\nsg84\ng88\nsg86\nF28.050000000000001\nsa(dp1018\ng82\nI551\nsg83\nI590\nsg84\ng88\nsg86\nF28.07\nsa(dp1019\ng82\nI555\nsg83\nI598\nsg84\ng88\nsg86\nF28.079999999999998\nsa(dp1020\ng82\nI560\nsg83\nI607\nsg84\ng88\nsg86\nF28.100000000000001\nsa(dp1021\ng82\nI567\nsg83\nI620\nsg84\ng88\nsg86\nF28.109999999999999\nsa(dp1022\ng82\nI573\nsg83\nI633\nsg84\ng88\nsg86\nF28.120000000000001\nsa(dp1023\ng82\nI582\nsg83\nI649\nsg84\ng88\nsg86\nF28.129999999999999\nsa(dp1024\ng82\nI590\nsg83\nI665\nsg84\ng88\nsg86\nF28.140000000000001\nsa(dp1025\ng82\nI601\nsg83\nI688\nsg84\ng88\nsg86\nF28.149999999999999\nsa(dp1026\ng82\nI610\nsg83\nI705\nsg84\ng88\nsg86\nF28.170000000000002\nsa(dp1027\ng82\nI619\nsg83\nI718\nsg84\ng88\nsg86\nF28.18\nsa(dp1028\ng82\nI625\nsg83\nI727\nsg84\ng88\nsg86\nF28.190000000000001\nsa(dp1029\ng82\nI630\nsg83\nI734\nsg84\ng88\nsg86\nF28.210000000000001\nsa(dp1030\ng82\nI634\nsg83\nI742\nsg84\ng88\nsg86\nF28.219999999999999\nsa(dp1031\ng82\nI637\nsg83\nI751\nsg84\ng88\nsg86\nF28.23\nsa(dp1032\ng82\nI639\nsg83\nI758\nsg84\ng88\nsg86\nF28.239999999999998\nsa(dp1033\ng82\nI641\nsg83\nI763\nsg84\ng88\nsg86\nF28.25\nsa(dp1034\ng82\nI642\nsg83\nI766\nsg84\ng88\nsg86\nF28.27\nsa(dp1035\ng82\nI642\nsg83\nI770\nsg84\ng88\nsg86\nF28.280000000000001\nsa(dp1036\ng82\nI644\nsg83\nI774\nsg84\ng88\nsg86\nF28.300000000000001\nsa(dp1037\ng82\nI646\nsg83\nI779\nsg84\ng88\nsg86\nF28.32\nsa(dp1038\ng82\nI649\nsg83\nI785\nsg84\ng88\nsg86\nF28.329999999999998\nsa(dp1039\ng82\nI651\nsg83\nI789\nsg84\ng88\nsg86\nF28.34\nsa(dp1040\ng82\nI654\nsg83\nI793\nsg84\ng88\nsg86\nF28.350000000000001\nsa(dp1041\ng82\nI656\nsg83\nI797\nsg84\ng88\nsg86\nF28.359999999999999\nsa(dp1042\ng82\nI657\nsg83\nI801\nsg84\ng88\nsg86\nF28.370000000000001\nsa(dp1043\ng82\nI657\nsg83\nI801\nsg84\ng130\nsg86\nF28.43\nsasS'mouse23'\np1044\n(lp1045\n(dp1046\ng82\nI531\nsg83\nI449\nsg84\ng85\nsg86\nF28.960000000000001\nsa(dp1047\ng82\nI531\nsg83\nI451\nsg84\ng88\nsg86\nF29.0\nsa(dp1048\ng82\nI532\nsg83\nI455\nsg84\ng88\nsg86\nF29.010000000000002\nsa(dp1049\ng82\nI539\nsg83\nI473\nsg84\ng88\nsg86\nF29.02\nsa(dp1050\ng82\nI549\nsg83\nI499\nsg84\ng88\nsg86\nF29.039999999999999\nsa(dp1051\ng82\nI562\nsg83\nI539\nsg84\ng88\nsg86\nF29.050000000000001\nsa(dp1052\ng82\nI573\nsg83\nI576\nsg84\ng88\nsg86\nF29.059999999999999\nsa(dp1053\ng82\nI592\nsg83\nI629\nsg84\ng88\nsg86\nF29.07\nsa(dp1054\ng82\nI605\nsg83\nI659\nsg84\ng88\nsg86\nF29.079999999999998\nsa(dp1055\ng82\nI615\nsg83\nI679\nsg84\ng88\nsg86\nF29.09\nsa(dp1056\ng82\nI623\nsg83\nI694\nsg84\ng88\nsg86\nF29.100000000000001\nsa(dp1057\ng82\nI629\nsg83\nI705\nsg84\ng88\nsg86\nF29.109999999999999\nsa(dp1058\ng82\nI634\nsg83\nI716\nsg84\ng88\nsg86\nF29.120000000000001\nsa(dp1059\ng82\nI636\nsg83\nI729\nsg84\ng88\nsg86\nF29.129999999999999\nsa(dp1060\ng82\nI637\nsg83\nI739\nsg84\ng88\nsg86\nF29.140000000000001\nsa(dp1061\ng82\nI637\nsg83\nI748\nsg84\ng88\nsg86\nF29.170000000000002\nsa(dp1062\ng82\nI637\nsg83\nI753\nsg84\ng88\nsg86\nF29.18\nsa(dp1063\ng82\nI637\nsg83\nI755\nsg84\ng88\nsg86\nF29.190000000000001\nsa(dp1064\ng82\nI637\nsg83\nI757\nsg84\ng88\nsg86\nF29.199999999999999\nsa(dp1065\ng82\nI637\nsg83\nI761\nsg84\ng88\nsg86\nF29.210000000000001\nsa(dp1066\ng82\nI637\nsg83\nI766\nsg84\ng88\nsg86\nF29.219999999999999\nsa(dp1067\ng82\nI637\nsg83\nI770\nsg84\ng88\nsg86\nF29.23\nsa(dp1068\ng82\nI637\nsg83\nI773\nsg84\ng88\nsg86\nF29.239999999999998\nsa(dp1069\ng82\nI637\nsg83\nI777\nsg84\ng88\nsg86\nF29.260000000000002\nsa(dp1070\ng82\nI637\nsg83\nI779\nsg84\ng88\nsg86\nF29.27\nsa(dp1071\ng82\nI637\nsg83\nI780\nsg84\ng88\nsg86\nF29.289999999999999\nsa(dp1072\ng82\nI637\nsg83\nI782\nsg84\ng88\nsg86\nF29.300000000000001\nsa(dp1073\ng82\nI637\nsg83\nI783\nsg84\ng88\nsg86\nF29.309999999999999\nsa(dp1074\ng82\nI636\nsg83\nI783\nsg84\ng88\nsg86\nF29.329999999999998\nsa(dp1075\ng82\nI635\nsg83\nI783\nsg84\ng88\nsg86\nF29.34\nsa(dp1076\ng82\nI633\nsg83\nI783\nsg84\ng88\nsg86\nF29.350000000000001\nsa(dp1077\ng82\nI632\nsg83\nI783\nsg84\ng88\nsg86\nF29.359999999999999\nsa(dp1078\ng82\nI630\nsg83\nI781\nsg84\ng88\nsg86\nF29.370000000000001\nsa(dp1079\ng82\nI628\nsg83\nI778\nsg84\ng88\nsg86\nF29.379999999999999\nsa(dp1080\ng82\nI626\nsg83\nI774\nsg84\ng88\nsg86\nF29.399999999999999\nsa(dp1081\ng82\nI624\nsg83\nI771\nsg84\ng88\nsg86\nF29.41\nsa(dp1082\ng82\nI622\nsg83\nI768\nsg84\ng88\nsg86\nF29.420000000000002\nsa(dp1083\ng82\nI620\nsg83\nI766\nsg84\ng88\nsg86\nF29.440000000000001\nsa(dp1084\ng82\nI618\nsg83\nI764\nsg84\ng88\nsg86\nF29.449999999999999\nsa(dp1085\ng82\nI616\nsg83\nI763\nsg84\ng88\nsg86\nF29.460000000000001\nsa(dp1086\ng82\nI613\nsg83\nI761\nsg84\ng88\nsg86\nF29.469999999999999\nsa(dp1087\ng82\nI611\nsg83\nI760\nsg84\ng88\nsg86\nF29.48\nsa(dp1088\ng82\nI610\nsg83\nI759\nsg84\ng88\nsg86\nF29.489999999999998\nsa(dp1089\ng82\nI608\nsg83\nI759\nsg84\ng88\nsg86\nF29.5\nsa(dp1090\ng82\nI605\nsg83\nI758\nsg84\ng88\nsg86\nF29.510000000000002\nsa(dp1091\ng82\nI602\nsg83\nI757\nsg84\ng88\nsg86\nF29.539999999999999\nsa(dp1092\ng82\nI598\nsg83\nI756\nsg84\ng88\nsg86\nF29.550000000000001\nsa(dp1093\ng82\nI595\nsg83\nI754\nsg84\ng88\nsg86\nF29.559999999999999\nsa(dp1094\ng82\nI593\nsg83\nI753\nsg84\ng88\nsg86\nF29.57\nsa(dp1095\ng82\nI591\nsg83\nI753\nsg84\ng88\nsg86\nF29.59\nsa(dp1096\ng82\nI589\nsg83\nI751\nsg84\ng88\nsg86\nF29.600000000000001\nsa(dp1097\ng82\nI587\nsg83\nI751\nsg84\ng88\nsg86\nF29.620000000000001\nsa(dp1098\ng82\nI584\nsg83\nI751\nsg84\ng88\nsg86\nF29.629999999999999\nsa(dp1099\ng82\nI582\nsg83\nI751\nsg84\ng88\nsg86\nF29.640000000000001\nsa(dp1100\ng82\nI581\nsg83\nI751\nsg84\ng88\nsg86\nF29.649999999999999\nsa(dp1101\ng82\nI580\nsg83\nI752\nsg84\ng88\nsg86\nF29.66\nsa(dp1102\ng82\nI580\nsg83\nI752\nsg84\ng130\nsg86\nF29.73\nsassg65\n(lp1103\nsg67\nNsS'animations'\np1104\n(lp1105\nsbasg67\nNsg1104\n(lp1106\nsbsg1104\n(lp1107\nsb."
p2
sS'graph_start'
p3
S"ccopy_reg\n_reconstructor\np0\n(c__main__\nGraphUI\np1\nc__builtin__\nobject\np2\nNtp3\nRp4\n(dp5\nS'g'\np6\ng0\n(cgraph\nGraph\np7\ng2\nNtp8\nRp9\n(dp10\nS'edges'\np11\n(lp12\n(lp13\n(lp14\nF485.0\naF208.0\naa(lp15\nF670.0\naF545.0\naaa(lp16\ng15\na(lp17\nF141.0\naF231.0\naaa(lp18\ng17\na(lp19\nF433.0\naF193.0\naaa(lp20\ng19\na(lp21\nF734.0\naF244.0\naaa(lp22\ng21\na(lp23\nF1029.0\naF552.0\naaa(lp24\ng23\na(lp25\nF980.0\naF536.0\naaa(lp26\ng25\na(lp27\nF944.0\naF682.0\naaa(lp28\ng27\na(lp29\nF746.0\naF334.0\naaa(lp30\ng29\na(lp31\nF204.0\naF115.0\naaa(lp32\ng31\na(lp33\nF171.0\naF565.0\naaa(lp34\ng33\na(lp35\nF963.0\naF552.0\naaa(lp36\ng35\na(lp37\nF200.0\naF469.0\naaa(lp38\ng37\na(lp39\nF1268.0\naF165.0\naaa(lp40\ng39\na(lp41\nF175.0\naF522.0\naaa(lp42\ng41\na(lp43\nF324.0\naF790.0\naaa(lp44\ng43\na(lp45\nF964.0\naF332.0\naaa(lp46\ng45\na(lp47\nF668.0\naF390.0\naaa(lp48\ng47\na(lp49\nF694.0\naF520.0\naaa(lp50\ng49\na(lp51\nF1102.0\naF673.0\naaa(lp52\ng51\na(lp53\nF1265.0\naF302.0\naaa(lp54\ng53\na(lp55\nF204.0\naF479.0\naaa(lp56\ng55\na(lp57\nF1298.0\naF682.0\naaa(lp58\ng57\na(lp59\nF1185.0\naF532.0\naaa(lp60\ng59\nag14\naasS'verts'\np61\n(lp62\ng14\nag15\nag17\nag19\nag21\nag23\nag25\nag27\nag29\nag31\nag33\nag35\nag37\nag39\nag41\nag43\nag45\nag47\nag49\nag51\nag53\nag55\nag57\nag59\nasbsS'touch2vertex'\np63\n(dp64\nsS'children'\np65\n(lp66\nsS'parent'\np67\ng0\n(cpymt.ui\nWidget\np68\ng2\nNtp69\nRp70\n(dp71\ng65\n(lp72\ng4\nag0\n(c__main__\nEventLogger\np73\ng2\nNtp74\nRp75\n(dp76\nS'touches'\np77\n(dp78\nsg65\n(lp79\nsg67\nNsS'animations'\np80\n(lp81\nsbasg67\nNsg80\n(lp82\nsbsg80\n(lp83\nsb."
p4
sS'events'
p5
(dp6
S'mouse19'
p7
(lp8
(dp9
S'y'
p10
I527
sS'x'
p11
I186
sS'type'
p12
S'down'
p13
sS't'
p14
F24.969999999999999
sa(dp15
g10
I527
sg11
I188
sg12
S'move'
p16
sg14
F24.98
sa(dp17
g10
I527
sg11
I194
sg12
g16
sg14
F24.989999999999998
sa(dp18
g10
I527
sg11
I204
sg12
g16
sg14
F25.0
sa(dp19
g10
I532
sg11
I239
sg12
g16
sg14
F25.02
sa(dp20
g10
I535
sg11
I289
sg12
g16
sg14
F25.039999999999999
sa(dp21
g10
I541
sg11
I372
sg12
g16
sg14
F25.050000000000001
sa(dp22
g10
I542
sg11
I475
sg12
g16
sg14
F25.059999999999999
sa(dp23
g10
I529
sg11
I566
sg12
g16
sg14
F25.07
sa(dp24
g10
I512
sg11
I662
sg12
g16
sg14
F25.079999999999998
sa(dp25
g10
I496
sg11
I734
sg12
g16
sg14
F25.09
sa(dp26
g10
I485
sg11
I780
sg12
g16
sg14
F25.100000000000001
sa(dp27
g10
I479
sg11
I805
sg12
g16
sg14
F25.109999999999999
sa(dp28
g10
I477
sg11
I820
sg12
g16
sg14
F25.120000000000001
sa(dp29
g10
I478
sg11
I826
sg12
g16
sg14
F25.140000000000001
sa(dp30
g10
I481
sg11
I828
sg12
g16
sg14
F25.27
sa(dp31
g10
I481
sg11
I830
sg12
g16
sg14
F25.280000000000001
sa(dp32
g10
I479
sg11
I839
sg12
g16
sg14
F25.300000000000001
sa(dp33
g10
I475
sg11
I848
sg12
g16
sg14
F25.309999999999999
sa(dp34
g10
I469
sg11
I858
sg12
g16
sg14
F25.32
sa(dp35
g10
I460
sg11
I877
sg12
g16
sg14
F25.329999999999998
sa(dp36
g10
I451
sg11
I893
sg12
g16
sg14
F25.34
sa(dp37
g10
I443
sg11
I906
sg12
g16
sg14
F25.350000000000001
sa(dp38
g10
I430
sg11
I916
sg12
g16
sg14
F25.359999999999999
sa(dp39
g10
I418
sg11
I921
sg12
g16
sg14
F25.370000000000001
sa(dp40
g10
I409
sg11
I923
sg12
g16
sg14
F25.379999999999999
sa(dp41
g10
I403
sg11
I923
sg12
g16
sg14
F25.390000000000001
sa(dp42
g10
I399
sg11
I923
sg12
g16
sg14
F25.399999999999999
sa(dp43
g10
I388
sg11
I917
sg12
g16
sg14
F25.420000000000002
sa(dp44
g10
I378
sg11
I907
sg12
g16
sg14
F25.440000000000001
sa(dp45
g10
I368
sg11
I897
sg12
g16
sg14
F25.449999999999999
sa(dp46
g10
I364
sg11
I891
sg12
g16
sg14
F25.460000000000001
sa(dp47
g10
I360
sg11
I885
sg12
g16
sg14
F25.469999999999999
sa(dp48
g10
I360
sg11
I882
sg12
g16
sg14
F25.48
sa(dp49
g10
I356
sg11
I872
sg12
g16
sg14
F25.489999999999998
sa(dp50
g10
I353
sg11
I864
sg12
g16
sg14
F25.5
sa(dp51
g10
I351
sg11
I858
sg12
g16
sg14
F25.510000000000002
sa(dp52
g10
I350
sg11
I854
sg12
g16
sg14
F25.530000000000001
sa(dp53
g10
I349
sg11
I843
sg12
g16
sg14
F25.550000000000001
sa(dp54
g10
I349
sg11
I835
sg12
g16
sg14
F25.559999999999999
sa(dp55
g10
I349
sg11
I830
sg12
g16
sg14
F25.57
sa(dp56
g10
I349
sg11
I827
sg12
g16
sg14
F25.600000000000001
sa(dp57
g10
I349
sg11
I827
sg12
S'up'
p58
sg14
F25.640000000000001
sasS'mouse18'
p59
(lp60
(dp61
g10
I553
sg11
I1020
sg12
g13
sg14
F23.719999999999999
sa(dp62
g10
I553
sg11
I1021
sg12
g16
sg14
F23.739999999999998
sa(dp63
g10
I553
sg11
I1020
sg12
g16
sg14
F23.77
sa(dp64
g10
I553
sg11
I1014
sg12
g16
sg14
F23.780000000000001
sa(dp65
g10
I566
sg11
I993
sg12
g16
sg14
F23.789999999999999
sa(dp66
g10
I582
sg11
I965
sg12
g16
sg14
F23.800000000000001
sa(dp67
g10
I621
sg11
I901
sg12
g16
sg14
F23.809999999999999
sa(dp68
g10
I650
sg11
I854
sg12
g16
sg14
F23.82
sa(dp69
g10
I681
sg11
I797
sg12
g16
sg14
F23.84
sa(dp70
g10
I694
sg11
I760
sg12
g16
sg14
F23.850000000000001
sa(dp71
g10
I701
sg11
I739
sg12
g16
sg14
F23.859999999999999
sa(dp72
g10
I705
sg11
I724
sg12
g16
sg14
F23.879999999999999
sa(dp73
g10
I708
sg11
I715
sg12
g16
sg14
F23.890000000000001
sa(dp74
g10
I709
sg11
I709
sg12
g16
sg14
F23.899999999999999
sa(dp75
g10
I709
sg11
I707
sg12
g16
sg14
F23.91
sa(dp76
g10
I710
sg11
I707
sg12
g16
sg14
F23.940000000000001
sa(dp77
g10
I710
sg11
I706
sg12
g16
sg14
F23.960000000000001
sa(dp78
g10
I710
sg11
I705
sg12
g16
sg14
F23.969999999999999
sa(dp79
g10
I710
sg11
I704
sg12
g16
sg14
F23.98
sa(dp80
g10
I710
sg11
I702
sg12
g16
sg14
F23.989999999999998
sa(dp81
g10
I711
sg11
I699
sg12
g16
sg14
F24.010000000000002
sa(dp82
g10
I712
sg11
I697
sg12
g16
sg14
F24.02
sa(dp83
g10
I712
sg11
I696
sg12
g16
sg14
F24.030000000000001
sa(dp84
g10
I713
sg11
I694
sg12
g16
sg14
F24.039999999999999
sa(dp85
g10
I713
sg11
I693
sg12
g16
sg14
F24.059999999999999
sa(dp86
g10
I713
sg11
I693
sg12
g58
sg14
F24.120000000000001
sasS'mouse11'
p87
(lp88
(dp89
g10
I339
sg11
I956
sg12
g13
sg14
F14.460000000000001
sa(dp90
g10
I339
sg11
I957
sg12
g16
sg14
F14.470000000000001
sa(dp91
g10
I339
sg11
I955
sg12
g16
sg14
F14.49
sa(dp92
g10
I341
sg11
I951
sg12
g16
sg14
F14.5
sa(dp93
g10
I349
sg11
I930
sg12
g16
sg14
F14.51
sa(dp94
g10
I373
sg11
I877
sg12
g16
sg14
F14.52
sa(dp95
g10
I427
sg11
I783
sg12
g16
sg14
F14.529999999999999
sa(dp96
g10
I463
sg11
I726
sg12
g16
sg14
F14.539999999999999
sa(dp97
g10
I492
sg11
I675
sg12
g16
sg14
F14.550000000000001
sa(dp98
g10
I511
sg11
I634
sg12
g16
sg14
F14.58
sa(dp99
g10
I523
sg11
I610
sg12
g16
sg14
F14.6
sa(dp100
g10
I534
sg11
I596
sg12
g16
sg14
F14.609999999999999
sa(dp101
g10
I543
sg11
I587
sg12
g16
sg14
F14.619999999999999
sa(dp102
g10
I548
sg11
I583
sg12
g16
sg14
F14.630000000000001
sa(dp103
g10
I549
sg11
I585
sg12
g16
sg14
F14.65
sa(dp104
g10
I549
sg11
I584
sg12
g16
sg14
F14.800000000000001
sa(dp105
g10
I550
sg11
I584
sg12
g16
sg14
F14.82
sa(dp106
g10
I550
sg11
I582
sg12
g16
sg14
F14.83
sa(dp107
g10
I552
sg11
I581
sg12
g16
sg14
F14.859999999999999
sa(dp108
g10
I553
sg11
I581
sg12
g16
sg14
F14.9
sa(dp109
g10
I553
sg11
I580
sg12
g16
sg14
F14.92
sa(dp110
g10
I554
sg11
I580
sg12
g16
sg14
F14.94
sa(dp111
g10
I554
sg11
I580
sg12
g58
sg14
F14.98
sasS'mouse10'
p112
(lp113
(dp114
g10
I777
sg11
I328
sg12
g13
sg14
F13.0
sa(dp115
g10
I776
sg11
I328
sg12
g16
sg14
F13.01
sa(dp116
g10
I773
sg11
I329
sg12
g16
sg14
F13.029999999999999
sa(dp117
g10
I768
sg11
I331
sg12
g16
sg14
F13.050000000000001
sa(dp118
g10
I758
sg11
I334
sg12
g16
sg14
F13.06
sa(dp119
g10
I748
sg11
I337
sg12
g16
sg14
F13.07
sa(dp120
g10
I738
sg11
I339
sg12
g16
sg14
F13.09
sa(dp121
g10
I707
sg11
I344
sg12
g16
sg14
F13.1
sa(dp122
g10
I689
sg11
I349
sg12
g16
sg14
F13.119999999999999
sa(dp123
g10
I656
sg11
I361
sg12
g16
sg14
F13.130000000000001
sa(dp124
g10
I626
sg11
I373
sg12
g16
sg14
F13.140000000000001
sa(dp125
g10
I576
sg11
I389
sg12
g16
sg14
F13.15
sa(dp126
g10
I549
sg11
I398
sg12
g16
sg14
F13.16
sa(dp127
g10
I528
sg11
I404
sg12
g16
sg14
F13.17
sa(dp128
g10
I511
sg11
I411
sg12
g16
sg14
F13.199999999999999
sa(dp129
g10
I504
sg11
I415
sg12
g16
sg14
F13.210000000000001
sa(dp130
g10
I505
sg11
I418
sg12
g16
sg14
F13.43
sa(dp131
g10
I507
sg11
I422
sg12
g16
sg14
F13.44
sa(dp132
g10
I510
sg11
I426
sg12
g16
sg14
F13.449999999999999
sa(dp133
g10
I513
sg11
I429
sg12
g16
sg14
F13.460000000000001
sa(dp134
g10
I515
sg11
I432
sg12
g16
sg14
F13.470000000000001
sa(dp135
g10
I516
sg11
I433
sg12
g16
sg14
F13.48
sa(dp136
g10
I517
sg11
I434
sg12
g16
sg14
F13.49
sa(dp137
g10
I518
sg11
I434
sg12
g16
sg14
F13.51
sa(dp138
g10
I518
sg11
I435
sg12
g16
sg14
F13.52
sa(dp139
g10
I520
sg11
I437
sg12
g16
sg14
F13.539999999999999
sa(dp140
g10
I520
sg11
I438
sg12
g16
sg14
F13.550000000000001
sa(dp141
g10
I520
sg11
I439
sg12
g16
sg14
F13.619999999999999
sa(dp142
g10
I521
sg11
I439
sg12
g16
sg14
F13.630000000000001
sa(dp143
g10
I521
sg11
I441
sg12
g16
sg14
F13.640000000000001
sa(dp144
g10
I521
sg11
I441
sg12
g58
sg14
F13.67
sasS'mouse13'
p145
(lp146
(dp147
g10
I671
sg11
I1301
sg12
g13
sg14
F17.41
sa(dp148
g10
I668
sg11
I1301
sg12
g16
sg14
F17.43
sa(dp149
g10
I664
sg11
I1301
sg12
g16
sg14
F17.449999999999999
sa(dp150
g10
I657
sg11
I1301
sg12
g16
sg14
F17.460000000000001
sa(dp151
g10
I636
sg11
I1301
sg12
g16
sg14
F17.469999999999999
sa(dp152
g10
I608
sg11
I1301
sg12
g16
sg14
F17.48
sa(dp153
g10
I576
sg11
I1303
sg12
g16
sg14
F17.489999999999998
sa(dp154
g10
I522
sg11
I1311
sg12
g16
sg14
F17.5
sa(dp155
g10
I476
sg11
I1324
sg12
g16
sg14
F17.52
sa(dp156
g10
I424
sg11
I1341
sg12
g16
sg14
F17.530000000000001
sa(dp157
g10
I393
sg11
I1353
sg12
g16
sg14
F17.539999999999999
sa(dp158
g10
I375
sg11
I1360
sg12
g16
sg14
F17.550000000000001
sa(dp159
g10
I366
sg11
I1364
sg12
g16
sg14
F17.57
sa(dp160
g10
I362
sg11
I1367
sg12
g16
sg14
F17.699999999999999
sa(dp161
g10
I360
sg11
I1371
sg12
g16
sg14
F17.710000000000001
sa(dp162
g10
I353
sg11
I1375
sg12
g16
sg14
F17.719999999999999
sa(dp163
g10
I345
sg11
I1379
sg12
g16
sg14
F17.73
sa(dp164
g10
I340
sg11
I1381
sg12
g16
sg14
F17.75
sa(dp165
g10
I334
sg11
I1384
sg12
g16
sg14
F17.77
sa(dp166
g10
I327
sg11
I1389
sg12
g16
sg14
F17.780000000000001
sa(dp167
g10
I321
sg11
I1392
sg12
g16
sg14
F17.800000000000001
sa(dp168
g10
I317
sg11
I1395
sg12
g16
sg14
F17.809999999999999
sa(dp169
g10
I315
sg11
I1395
sg12
g16
sg14
F17.829999999999998
sa(dp170
g10
I315
sg11
I1396
sg12
g16
sg14
F17.850000000000001
sa(dp171
g10
I315
sg11
I1396
sg12
g58
sg14
F17.870000000000001
sasS'mouse12'
p172
(lp173
(dp174
g10
I382
sg11
I678
sg12
g13
sg14
F15.43
sa(dp175
g10
I383
sg11
I678
sg12
g16
sg14
F15.449999999999999
sa(dp176
g10
I386
sg11
I673
sg12
g16
sg14
F15.470000000000001
sa(dp177
g10
I391
sg11
I668
sg12
g16
sg14
F15.48
sa(dp178
g10
I396
sg11
I663
sg12
g16
sg14
F15.49
sa(dp179
g10
I401
sg11
I658
sg12
g16
sg14
F15.5
sa(dp180
g10
I411
sg11
I650
sg12
g16
sg14
F15.51
sa(dp181
g10
I418
sg11
I644
sg12
g16
sg14
F15.52
sa(dp182
g10
I424
sg11
I639
sg12
g16
sg14
F15.529999999999999
sa(dp183
g10
I429
sg11
I634
sg12
g16
sg14
F15.550000000000001
sa(dp184
g10
I434
sg11
I628
sg12
g16
sg14
F15.56
sa(dp185
g10
I438
sg11
I624
sg12
g16
sg14
F15.57
sa(dp186
g10
I446
sg11
I618
sg12
g16
sg14
F15.59
sa(dp187
g10
I452
sg11
I615
sg12
g16
sg14
F15.609999999999999
sa(dp188
g10
I458
sg11
I612
sg12
g16
sg14
F15.619999999999999
sa(dp189
g10
I461
sg11
I611
sg12
g16
sg14
F15.640000000000001
sa(dp190
g10
I463
sg11
I611
sg12
g16
sg14
F15.65
sa(dp191
g10
I465
sg11
I611
sg12
g16
sg14
F15.67
sa(dp192
g10
I465
sg11
I611
sg12
g58
sg14
F15.83
sasS'mouse15'
p193
(lp194
(dp195
g10
I158
sg11
I1276
sg12
g13
sg14
F19.75
sa(dp196
g10
I159
sg11
I1273
sg12
g16
sg14
F19.800000000000001
sa(dp197
g10
I162
sg11
I1264
sg12
g16
sg14
F19.809999999999999
sa(dp198
g10
I171
sg11
I1250
sg12
g16
sg14
F19.82
sa(dp199
g10
I192
sg11
I1216
sg12
g16
sg14
F19.829999999999998
sa(dp200
g10
I217
sg11
I1169
sg12
g16
sg14
F19.850000000000001
sa(dp201
g10
I256
sg11
I1091
sg12
g16
sg14
F19.859999999999999
sa(dp202
g10
I283
sg11
I1029
sg12
g16
sg14
F19.879999999999999
sa(dp203
g10
I296
sg11
I977
sg12
g16
sg14
F19.899999999999999
sa(dp204
g10
I301
sg11
I947
sg12
g16
sg14
F19.920000000000002
sa(dp205
g10
I301
sg11
I929
sg12
g16
sg14
F19.940000000000001
sa(dp206
g10
I301
sg11
I920
sg12
g16
sg14
F19.949999999999999
sa(dp207
g10
I300
sg11
I917
sg12
g16
sg14
F20.079999999999998
sa(dp208
g10
I300
sg11
I915
sg12
g16
sg14
F20.09
sa(dp209
g10
I299
sg11
I911
sg12
g16
sg14
F20.100000000000001
sa(dp210
g10
I299
sg11
I907
sg12
g16
sg14
F20.109999999999999
sa(dp211
g10
I299
sg11
I903
sg12
g16
sg14
F20.120000000000001
sa(dp212
g10
I299
sg11
I900
sg12
g16
sg14
F20.129999999999999
sa(dp213
g10
I299
sg11
I902
sg12
g16
sg14
F20.199999999999999
sa(dp214
g10
I299
sg11
I904
sg12
g16
sg14
F20.210000000000001
sa(dp215
g10
I298
sg11
I908
sg12
g16
sg14
F20.23
sa(dp216
g10
I296
sg11
I912
sg12
g16
sg14
F20.239999999999998
sa(dp217
g10
I294
sg11
I919
sg12
g16
sg14
F20.25
sa(dp218
g10
I292
sg11
I925
sg12
g16
sg14
F20.260000000000002
sa(dp219
g10
I289
sg11
I930
sg12
g16
sg14
F20.27
sa(dp220
g10
I288
sg11
I934
sg12
g16
sg14
F20.289999999999999
sa(dp221
g10
I285
sg11
I938
sg12
g16
sg14
F20.300000000000001
sa(dp222
g10
I285
sg11
I941
sg12
g16
sg14
F20.309999999999999
sa(dp223
g10
I285
sg11
I941
sg12
g58
sg14
F20.350000000000001
sasS'mouse14'
p224
(lp225
(dp226
g10
I529
sg11
I1181
sg12
g13
sg14
F18.43
sa(dp227
g10
I528
sg11
I1181
sg12
g16
sg14
F18.440000000000001
sa(dp228
g10
I524
sg11
I1183
sg12
g16
sg14
F18.449999999999999
sa(dp229
g10
I517
sg11
I1187
sg12
g16
sg14
F18.460000000000001
sa(dp230
g10
I493
sg11
I1197
sg12
g16
sg14
F18.469999999999999
sa(dp231
g10
I438
sg11
I1212
sg12
g16
sg14
F18.489999999999998
sa(dp232
g10
I361
sg11
I1227
sg12
g16
sg14
F18.5
sa(dp233
g10
I314
sg11
I1233
sg12
g16
sg14
F18.52
sa(dp234
g10
I279
sg11
I1238
sg12
g16
sg14
F18.530000000000001
sa(dp235
g10
I255
sg11
I1242
sg12
g16
sg14
F18.539999999999999
sa(dp236
g10
I241
sg11
I1246
sg12
g16
sg14
F18.550000000000001
sa(dp237
g10
I233
sg11
I1250
sg12
g16
sg14
F18.559999999999999
sa(dp238
g10
I229
sg11
I1253
sg12
g16
sg14
F18.670000000000002
sa(dp239
g10
I226
sg11
I1254
sg12
g16
sg14
F18.68
sa(dp240
g10
I218
sg11
I1255
sg12
g16
sg14
F18.690000000000001
sa(dp241
g10
I210
sg11
I1256
sg12
g16
sg14
F18.699999999999999
sa(dp242
g10
I196
sg11
I1258
sg12
g16
sg14
F18.710000000000001
sa(dp243
g10
I173
sg11
I1263
sg12
g16
sg14
F18.719999999999999
sa(dp244
g10
I143
sg11
I1273
sg12
g16
sg14
F18.739999999999998
sa(dp245
g10
I110
sg11
I1286
sg12
g16
sg14
F18.75
sa(dp246
g10
I89
sg11
I1296
sg12
g16
sg14
F18.760000000000002
sa(dp247
g10
I70
sg11
I1304
sg12
g16
sg14
F18.77
sa(dp248
g10
I55
sg11
I1310
sg12
g16
sg14
F18.789999999999999
sa(dp249
g10
I45
sg11
I1314
sg12
g16
sg14
F18.800000000000001
sa(dp250
g10
I37
sg11
I1317
sg12
g16
sg14
F18.809999999999999
sa(dp251
g10
I33
sg11
I1319
sg12
g16
sg14
F18.82
sa(dp252
g10
I31
sg11
I1320
sg12
g16
sg14
F18.829999999999998
sa(dp253
g10
I30
sg11
I1321
sg12
g16
sg14
F19.0
sa(dp254
g10
I30
sg11
I1322
sg12
g16
sg14
F19.02
sa(dp255
g10
I32
sg11
I1322
sg12
g16
sg14
F19.030000000000001
sa(dp256
g10
I33
sg11
I1324
sg12
g16
sg14
F19.039999999999999
sa(dp257
g10
I35
sg11
I1326
sg12
g16
sg14
F19.050000000000001
sa(dp258
g10
I37
sg11
I1328
sg12
g16
sg14
F19.059999999999999
sa(dp259
g10
I38
sg11
I1330
sg12
g16
sg14
F19.07
sa(dp260
g10
I40
sg11
I1331
sg12
g16
sg14
F19.079999999999998
sa(dp261
g10
I41
sg11
I1332
sg12
g16
sg14
F19.100000000000001
sa(dp262
g10
I41
sg11
I1332
sg12
g58
sg14
F19.140000000000001
sasS'mouse17'
p263
(lp264
(dp265
g10
I676
sg11
I937
sg12
g13
sg14
F22.780000000000001
sa(dp266
g10
I676
sg11
I932
sg12
g16
sg14
F22.789999999999999
sa(dp267
g10
I678
sg11
I928
sg12
g16
sg14
F22.800000000000001
sa(dp268
g10
I681
sg11
I923
sg12
g16
sg14
F22.809999999999999
sa(dp269
g10
I694
sg11
I902
sg12
g16
sg14
F22.84
sa(dp270
g10
I721
sg11
I867
sg12
g16
sg14
F22.850000000000001
sa(dp271
g10
I751
sg11
I827
sg12
g16
sg14
F22.859999999999999
sa(dp272
g10
I780
sg11
I797
sg12
g16
sg14
F22.870000000000001
sa(dp273
g10
I800
sg11
I779
sg12
g16
sg14
F22.879999999999999
sa(dp274
g10
I816
sg11
I766
sg12
g16
sg14
F22.890000000000001
sa(dp275
g10
I830
sg11
I759
sg12
g16
sg14
F22.899999999999999
sa(dp276
g10
I841
sg11
I750
sg12
g16
sg14
F22.91
sa(dp277
g10
I841
sg11
I750
sg12
g58
sg14
F23.030000000000001
sasS'mouse16'
p278
(lp279
(dp280
g10
I570
sg11
I963
sg12
g13
sg14
F20.969999999999999
sa(dp281
g10
I569
sg11
I961
sg12
g16
sg14
F20.989999999999998
sa(dp282
g10
I569
sg11
I957
sg12
g16
sg14
F21.0
sa(dp283
g10
I567
sg11
I949
sg12
g16
sg14
F21.010000000000002
sa(dp284
g10
I566
sg11
I941
sg12
g16
sg14
F21.02
sa(dp285
g10
I566
sg11
I934
sg12
g16
sg14
F21.039999999999999
sa(dp286
g10
I565
sg11
I925
sg12
g16
sg14
F21.059999999999999
sa(dp287
g10
I563
sg11
I919
sg12
g16
sg14
F21.07
sa(dp288
g10
I562
sg11
I913
sg12
g16
sg14
F21.079999999999998
sa(dp289
g10
I559
sg11
I909
sg12
g16
sg14
F21.09
sa(dp290
g10
I555
sg11
I899
sg12
g16
sg14
F21.109999999999999
sa(dp291
g10
I550
sg11
I889
sg12
g16
sg14
F21.120000000000001
sa(dp292
g10
I546
sg11
I881
sg12
g16
sg14
F21.129999999999999
sa(dp293
g10
I543
sg11
I876
sg12
g16
sg14
F21.140000000000001
sa(dp294
g10
I541
sg11
I872
sg12
g16
sg14
F21.149999999999999
sa(dp295
g10
I542
sg11
I873
sg12
g16
sg14
F21.420000000000002
sa(dp296
g10
I543
sg11
I874
sg12
g16
sg14
F21.43
sa(dp297
g10
I545
sg11
I876
sg12
g16
sg14
F21.449999999999999
sa(dp298
g10
I548
sg11
I878
sg12
g16
sg14
F21.460000000000001
sa(dp299
g10
I549
sg11
I880
sg12
g16
sg14
F21.469999999999999
sa(dp300
g10
I551
sg11
I881
sg12
g16
sg14
F21.48
sa(dp301
g10
I553
sg11
I881
sg12
g16
sg14
F21.489999999999998
sa(dp302
g10
I553
sg11
I882
sg12
g16
sg14
F21.510000000000002
sa(dp303
g10
I555
sg11
I883
sg12
g16
sg14
F21.530000000000001
sa(dp304
g10
I557
sg11
I887
sg12
g16
sg14
F21.539999999999999
sa(dp305
g10
I562
sg11
I894
sg12
g16
sg14
F21.550000000000001
sa(dp306
g10
I567
sg11
I902
sg12
g16
sg14
F21.559999999999999
sa(dp307
g10
I571
sg11
I910
sg12
g16
sg14
F21.57
sa(dp308
g10
I575
sg11
I919
sg12
g16
sg14
F21.59
sa(dp309
g10
I578
sg11
I924
sg12
g16
sg14
F21.609999999999999
sa(dp310
g10
I581
sg11
I928
sg12
g16
sg14
F21.739999999999998
sa(dp311
g10
I585
sg11
I934
sg12
g16
sg14
F21.75
sa(dp312
g10
I590
sg11
I938
sg12
g16
sg14
F21.760000000000002
sa(dp313
g10
I597
sg11
I943
sg12
g16
sg14
F21.77
sa(dp314
g10
I604
sg11
I951
sg12
g16
sg14
F21.780000000000001
sa(dp315
g10
I609
sg11
I959
sg12
g16
sg14
F21.789999999999999
sa(dp316
g10
I619
sg11
I970
sg12
g16
sg14
F21.82
sa(dp317
g10
I629
sg11
I983
sg12
g16
sg14
F21.84
sa(dp318
g10
I636
sg11
I992
sg12
g16
sg14
F21.850000000000001
sa(dp319
g10
I642
sg11
I1002
sg12
g16
sg14
F21.859999999999999
sa(dp320
g10
I648
sg11
I1011
sg12
g16
sg14
F21.870000000000001
sa(dp321
g10
I651
sg11
I1018
sg12
g16
sg14
F21.879999999999999
sa(dp322
g10
I655
sg11
I1022
sg12
g16
sg14
F21.890000000000001
sa(dp323
g10
I657
sg11
I1025
sg12
g16
sg14
F21.899999999999999
sa(dp324
g10
I662
sg11
I1030
sg12
g16
sg14
F21.91
sa(dp325
g10
I669
sg11
I1033
sg12
g16
sg14
F21.93
sa(dp326
g10
I674
sg11
I1035
sg12
g16
sg14
F21.940000000000001
sa(dp327
g10
I676
sg11
I1035
sg12
g16
sg14
F21.949999999999999
sa(dp328
g10
I679
sg11
I1036
sg12
g16
sg14
F21.960000000000001
sa(dp329
g10
I687
sg11
I1038
sg12
g16
sg14
F21.969999999999999
sa(dp330
g10
I694
sg11
I1038
sg12
g16
sg14
F21.989999999999998
sa(dp331
g10
I699
sg11
I1038
sg12
g16
sg14
F22.0
sa(dp332
g10
I703
sg11
I1038
sg12
g16
sg14
F22.010000000000002
sa(dp333
g10
I708
sg11
I1038
sg12
g16
sg14
F22.02
sa(dp334
g10
I712
sg11
I1038
sg12
g16
sg14
F22.039999999999999
sa(dp335
g10
I715
sg11
I1039
sg12
g16
sg14
F22.059999999999999
sa(dp336
g10
I719
sg11
I1039
sg12
g16
sg14
F22.18
sa(dp337
g10
I727
sg11
I1039
sg12
g16
sg14
F22.210000000000001
sa(dp338
g10
I734
sg11
I1038
sg12
g16
sg14
F22.219999999999999
sa(dp339
g10
I741
sg11
I1037
sg12
g16
sg14
F22.23
sa(dp340
g10
I748
sg11
I1037
sg12
g16
sg14
F22.239999999999998
sa(dp341
g10
I755
sg11
I1036
sg12
g16
sg14
F22.25
sa(dp342
g10
I765
sg11
I1036
sg12
g16
sg14
F22.260000000000002
sa(dp343
g10
I773
sg11
I1035
sg12
g16
sg14
F22.27
sa(dp344
g10
I778
sg11
I1034
sg12
g16
sg14
F22.280000000000001
sa(dp345
g10
I784
sg11
I1034
sg12
g16
sg14
F22.289999999999999
sa(dp346
g10
I784
sg11
I1034
sg12
g58
sg14
F22.370000000000001
sasS'mouse9'
p347
(lp348
(dp349
g10
I479
sg11
I216
sg12
g13
sg14
F11.390000000000001
sa(dp350
g10
I480
sg11
I219
sg12
g16
sg14
F11.42
sa(dp351
g10
I483
sg11
I229
sg12
g16
sg14
F11.43
sa(dp352
g10
I499
sg11
I289
sg12
g16
sg14
F11.44
sa(dp353
g10
I520
sg11
I402
sg12
g16
sg14
F11.449999999999999
sa(dp354
g10
I531
sg11
I509
sg12
g16
sg14
F11.470000000000001
sa(dp355
g10
I539
sg11
I624
sg12
g16
sg14
F11.48
sa(dp356
g10
I542
sg11
I724
sg12
g16
sg14
F11.5
sa(dp357
g10
I542
sg11
I809
sg12
g16
sg14
F11.51
sa(dp358
g10
I539
sg11
I860
sg12
g16
sg14
F11.52
sa(dp359
g10
I536
sg11
I885
sg12
g16
sg14
F11.529999999999999
sa(dp360
g10
I534
sg11
I898
sg12
g16
sg14
F11.539999999999999
sa(dp361
g10
I533
sg11
I901
sg12
g16
sg14
F11.56
sa(dp362
g10
I534
sg11
I906
sg12
g16
sg14
F11.69
sa(dp363
g10
I536
sg11
I920
sg12
g16
sg14
F11.699999999999999
sa(dp364
g10
I537
sg11
I938
sg12
g16
sg14
F11.720000000000001
sa(dp365
g10
I539
sg11
I963
sg12
g16
sg14
F11.73
sa(dp366
g10
I540
sg11
I999
sg12
g16
sg14
F11.75
sa(dp367
g10
I544
sg11
I1090
sg12
g16
sg14
F11.76
sa(dp368
g10
I544
sg11
I1146
sg12
g16
sg14
F11.77
sa(dp369
g10
I544
sg11
I1197
sg12
g16
sg14
F11.779999999999999
sa(dp370
g10
I541
sg11
I1229
sg12
g16
sg14
F11.789999999999999
sa(dp371
g10
I538
sg11
I1247
sg12
g16
sg14
F11.800000000000001
sa(dp372
g10
I534
sg11
I1257
sg12
g16
sg14
F11.82
sa(dp373
g10
I531
sg11
I1263
sg12
g16
sg14
F11.83
sa(dp374
g10
I530
sg11
I1267
sg12
g16
sg14
F11.84
sa(dp375
g10
I530
sg11
I1269
sg12
g16
sg14
F11.85
sa(dp376
g10
I530
sg11
I1270
sg12
g16
sg14
F12.02
sa(dp377
g10
I528
sg11
I1276
sg12
g16
sg14
F12.029999999999999
sa(dp378
g10
I526
sg11
I1282
sg12
g16
sg14
F12.039999999999999
sa(dp379
g10
I524
sg11
I1288
sg12
g16
sg14
F12.050000000000001
sa(dp380
g10
I522
sg11
I1295
sg12
g16
sg14
F12.06
sa(dp381
g10
I521
sg11
I1303
sg12
g16
sg14
F12.07
sa(dp382
g10
I519
sg11
I1309
sg12
g16
sg14
F12.08
sa(dp383
g10
I518
sg11
I1314
sg12
g16
sg14
F12.09
sa(dp384
g10
I517
sg11
I1321
sg12
g16
sg14
F12.1
sa(dp385
g10
I516
sg11
I1325
sg12
g16
sg14
F12.119999999999999
sa(dp386
g10
I515
sg11
I1330
sg12
g16
sg14
F12.140000000000001
sa(dp387
g10
I515
sg11
I1330
sg12
g58
sg14
F12.24
sasS'mouse8'
p388
(lp389
(dp390
g10
I483
sg11
I203
sg12
g13
sg14
F9.9299999999999997
sa(dp391
g10
I483
sg11
I210
sg12
g16
sg14
F9.9399999999999995
sa(dp392
g10
I483
sg11
I259
sg12
g16
sg14
F9.9499999999999993
sa(dp393
g10
I483
sg11
I370
sg12
g16
sg14
F9.9700000000000006
sa(dp394
g10
I481
sg11
I479
sg12
g16
sg14
F9.9800000000000004
sa(dp395
g10
I474
sg11
I582
sg12
g16
sg14
F10.0
sa(dp396
g10
I466
sg11
I677
sg12
g16
sg14
F10.01
sa(dp397
g10
I455
sg11
I743
sg12
g16
sg14
F10.029999999999999
sa(dp398
g10
I448
sg11
I777
sg12
g16
sg14
F10.039999999999999
sa(dp399
g10
I444
sg11
I794
sg12
g16
sg14
F10.050000000000001
sa(dp400
g10
I443
sg11
I799
sg12
g16
sg14
F10.19
sa(dp401
g10
I443
sg11
I802
sg12
g16
sg14
F10.199999999999999
sa(dp402
g10
I444
sg11
I813
sg12
g16
sg14
F10.210000000000001
sa(dp403
g10
I445
sg11
I827
sg12
g16
sg14
F10.220000000000001
sa(dp404
g10
I445
sg11
I846
sg12
g16
sg14
F10.24
sa(dp405
g10
I446
sg11
I864
sg12
g16
sg14
F10.25
sa(dp406
g10
I447
sg11
I896
sg12
g16
sg14
F10.26
sa(dp407
g10
I447
sg11
I924
sg12
g16
sg14
F10.279999999999999
sa(dp408
g10
I447
sg11
I954
sg12
g16
sg14
F10.289999999999999
sa(dp409
g10
I446
sg11
I972
sg12
g16
sg14
F10.300000000000001
sa(dp410
g10
I445
sg11
I991
sg12
g16
sg14
F10.31
sa(dp411
g10
I442
sg11
I1007
sg12
g16
sg14
F10.32
sa(dp412
g10
I438
sg11
I1019
sg12
g16
sg14
F10.33
sa(dp413
g10
I434
sg11
I1029
sg12
g16
sg14
F10.34
sa(dp414
g10
I429
sg11
I1045
sg12
g16
sg14
F10.359999999999999
sa(dp415
g10
I422
sg11
I1061
sg12
g16
sg14
F10.369999999999999
sa(dp416
g10
I417
sg11
I1071
sg12
g16
sg14
F10.380000000000001
sa(dp417
g10
I413
sg11
I1080
sg12
g16
sg14
F10.390000000000001
sa(dp418
g10
I412
sg11
I1082
sg12
g16
sg14
F10.41
sa(dp419
g10
I410
sg11
I1089
sg12
g16
sg14
F10.42
sa(dp420
g10
I408
sg11
I1096
sg12
g16
sg14
F10.43
sa(dp421
g10
I405
sg11
I1103
sg12
g16
sg14
F10.44
sa(dp422
g10
I403
sg11
I1109
sg12
g16
sg14
F10.449999999999999
sa(dp423
g10
I403
sg11
I1111
sg12
g16
sg14
F10.460000000000001
sa(dp424
g10
I403
sg11
I1113
sg12
g16
sg14
F10.48
sa(dp425
g10
I402
sg11
I1115
sg12
g16
sg14
F10.51
sa(dp426
g10
I402
sg11
I1116
sg12
g16
sg14
F10.52
sa(dp427
g10
I402
sg11
I1116
sg12
g58
sg14
F10.67
sasS'mouse5'
p428
(lp429
(dp430
g10
I180
sg11
I423
sg12
g13
sg14
F6.6100000000000003
sa(dp431
g10
I180
sg11
I425
sg12
g16
sg14
F6.6299999999999999
sa(dp432
g10
I180
sg11
I429
sg12
g16
sg14
F6.6399999999999997
sa(dp433
g10
I179
sg11
I432
sg12
g16
sg14
F6.6500000000000004
sa(dp434
g10
I178
sg11
I435
sg12
g16
sg14
F6.6600000000000001
sa(dp435
g10
I176
sg11
I438
sg12
g16
sg14
F6.6699999999999999
sa(dp436
g10
I174
sg11
I443
sg12
g16
sg14
F6.6799999999999997
sa(dp437
g10
I172
sg11
I447
sg12
g16
sg14
F6.7000000000000002
sa(dp438
g10
I170
sg11
I452
sg12
g16
sg14
F6.7199999999999998
sa(dp439
g10
I168
sg11
I456
sg12
g16
sg14
F6.7300000000000004
sa(dp440
g10
I167
sg11
I459
sg12
g16
sg14
F6.7400000000000002
sa(dp441
g10
I166
sg11
I462
sg12
g16
sg14
F6.75
sa(dp442
g10
I166
sg11
I464
sg12
g16
sg14
F6.7599999999999998
sa(dp443
g10
I166
sg11
I465
sg12
g16
sg14
F6.7699999999999996
sa(dp444
g10
I166
sg11
I466
sg12
g16
sg14
F6.7800000000000002
sa(dp445
g10
I165
sg11
I467
sg12
g16
sg14
F6.7999999999999998
sa(dp446
g10
I165
sg11
I467
sg12
g58
sg14
F6.8600000000000003
sasS'mouse4'
p447
(lp448
(dp449
g10
I114
sg11
I115
sg12
g13
sg14
F5.5300000000000002
sa(dp450
g10
I114
sg11
I116
sg12
g16
sg14
F5.54
sa(dp451
g10
I114
sg11
I123
sg12
g16
sg14
F5.5599999999999996
sa(dp452
g10
I114
sg11
I137
sg12
g16
sg14
F5.5700000000000003
sa(dp453
g10
I114
sg11
I183
sg12
g16
sg14
F5.5899999999999999
sa(dp454
g10
I110
sg11
I249
sg12
g16
sg14
F5.5999999999999996
sa(dp455
g10
I97
sg11
I335
sg12
g16
sg14
F5.6100000000000003
sa(dp456
g10
I83
sg11
I395
sg12
g16
sg14
F5.6200000000000001
sa(dp457
g10
I70
sg11
I454
sg12
g16
sg14
F5.6399999999999997
sa(dp458
g10
I63
sg11
I492
sg12
g16
sg14
F5.6500000000000004
sa(dp459
g10
I58
sg11
I516
sg12
g16
sg14
F5.6600000000000001
sa(dp460
g10
I59
sg11
I532
sg12
g16
sg14
F5.6699999999999999
sa(dp461
g10
I61
sg11
I537
sg12
g16
sg14
F5.8300000000000001
sa(dp462
g10
I62
sg11
I538
sg12
g16
sg14
F5.8399999999999999
sa(dp463
g10
I63
sg11
I539
sg12
g16
sg14
F5.8499999999999996
sa(dp464
g10
I67
sg11
I543
sg12
g16
sg14
F5.8600000000000003
sa(dp465
g10
I71
sg11
I547
sg12
g16
sg14
F5.8700000000000001
sa(dp466
g10
I73
sg11
I551
sg12
g16
sg14
F5.8799999999999999
sa(dp467
g10
I75
sg11
I553
sg12
g16
sg14
F5.9000000000000004
sa(dp468
g10
I77
sg11
I555
sg12
g16
sg14
F5.9100000000000001
sa(dp469
g10
I78
sg11
I558
sg12
g16
sg14
F5.9199999999999999
sa(dp470
g10
I80
sg11
I561
sg12
g16
sg14
F5.9400000000000004
sa(dp471
g10
I81
sg11
I563
sg12
g16
sg14
F5.9500000000000002
sa(dp472
g10
I82
sg11
I564
sg12
g16
sg14
F5.96
sa(dp473
g10
I82
sg11
I565
sg12
g16
sg14
F5.9699999999999998
sa(dp474
g10
I82
sg11
I566
sg12
g16
sg14
F5.9800000000000004
sa(dp475
g10
I82
sg11
I566
sg12
g58
sg14
F6.0199999999999996
sasS'mouse7'
p476
(lp477
(dp478
g10
I571
sg11
I169
sg12
g13
sg14
F8.8499999999999996
sa(dp479
g10
I568
sg11
I171
sg12
g16
sg14
F8.9000000000000004
sa(dp480
g10
I564
sg11
I177
sg12
g16
sg14
F8.9100000000000001
sa(dp481
g10
I558
sg11
I187
sg12
g16
sg14
F8.9199999999999999
sa(dp482
g10
I545
sg11
I197
sg12
g16
sg14
F8.9499999999999993
sa(dp483
g10
I522
sg11
I213
sg12
g16
sg14
F8.9600000000000009
sa(dp484
g10
I456
sg11
I260
sg12
g16
sg14
F8.9700000000000006
sa(dp485
g10
I403
sg11
I292
sg12
g16
sg14
F8.9800000000000004
sa(dp486
g10
I353
sg11
I317
sg12
g16
sg14
F8.9900000000000002
sa(dp487
g10
I321
sg11
I330
sg12
g16
sg14
F9.0
sa(dp488
g10
I302
sg11
I338
sg12
g16
sg14
F9.0199999999999996
sa(dp489
g10
I286
sg11
I342
sg12
g16
sg14
F9.0399999999999991
sa(dp490
g10
I277
sg11
I345
sg12
g16
sg14
F9.0500000000000007
sa(dp491
g10
I276
sg11
I345
sg12
g16
sg14
F9.1699999999999999
sa(dp492
g10
I275
sg11
I345
sg12
g16
sg14
F9.1899999999999995
sa(dp493
g10
I275
sg11
I343
sg12
g16
sg14
F9.1999999999999993
sa(dp494
g10
I273
sg11
I340
sg12
g16
sg14
F9.2200000000000006
sa(dp495
g10
I271
sg11
I334
sg12
g16
sg14
F9.2400000000000002
sa(dp496
g10
I269
sg11
I328
sg12
g16
sg14
F9.25
sa(dp497
g10
I268
sg11
I324
sg12
g16
sg14
F9.2599999999999998
sa(dp498
g10
I267
sg11
I320
sg12
g16
sg14
F9.2799999999999994
sa(dp499
g10
I267
sg11
I317
sg12
g16
sg14
F9.3000000000000007
sa(dp500
g10
I265
sg11
I314
sg12
g16
sg14
F9.3100000000000005
sa(dp501
g10
I265
sg11
I311
sg12
g16
sg14
F9.3200000000000003
sa(dp502
g10
I264
sg11
I310
sg12
g16
sg14
F9.3300000000000001
sa(dp503
g10
I264
sg11
I310
sg12
g58
sg14
F9.4299999999999997
sasS'mouse6'
p504
(lp505
(dp506
g10
I319
sg11
I734
sg12
g13
sg14
F7.6100000000000003
sa(dp507
g10
I320
sg11
I732
sg12
g16
sg14
F7.6299999999999999
sa(dp508
g10
I322
sg11
I728
sg12
g16
sg14
F7.6399999999999997
sa(dp509
g10
I326
sg11
I722
sg12
g16
sg14
F7.6600000000000001
sa(dp510
g10
I333
sg11
I709
sg12
g16
sg14
F7.6699999999999999
sa(dp511
g10
I367
sg11
I661
sg12
g16
sg14
F7.6799999999999997
sa(dp512
g10
I417
sg11
I583
sg12
g16
sg14
F7.6900000000000004
sa(dp513
g10
I457
sg11
I508
sg12
g16
sg14
F7.71
sa(dp514
g10
I491
sg11
I429
sg12
g16
sg14
F7.7199999999999998
sa(dp515
g10
I509
sg11
I377
sg12
g16
sg14
F7.7400000000000002
sa(dp516
g10
I518
sg11
I349
sg12
g16
sg14
F7.75
sa(dp517
g10
I523
sg11
I333
sg12
g16
sg14
F7.7599999999999998
sa(dp518
g10
I527
sg11
I326
sg12
g16
sg14
F7.7800000000000002
sa(dp519
g10
I527
sg11
I327
sg12
g16
sg14
F7.7999999999999998
sa(dp520
g10
I528
sg11
I323
sg12
g16
sg14
F7.9299999999999997
sa(dp521
g10
I532
sg11
I311
sg12
g16
sg14
F7.9400000000000004
sa(dp522
g10
I535
sg11
I304
sg12
g16
sg14
F7.9500000000000002
sa(dp523
g10
I537
sg11
I293
sg12
g16
sg14
F7.96
sa(dp524
g10
I540
sg11
I283
sg12
g16
sg14
F7.9699999999999998
sa(dp525
g10
I542
sg11
I273
sg12
g16
sg14
F7.9800000000000004
sa(dp526
g10
I548
sg11
I246
sg12
g16
sg14
F8.0
sa(dp527
g10
I548
sg11
I227
sg12
g16
sg14
F8.0099999999999998
sa(dp528
g10
I546
sg11
I202
sg12
g16
sg14
F8.0199999999999996
sa(dp529
g10
I542
sg11
I179
sg12
g16
sg14
F8.0299999999999994
sa(dp530
g10
I536
sg11
I144
sg12
g16
sg14
F8.0399999999999991
sa(dp531
g10
I532
sg11
I118
sg12
g16
sg14
F8.0600000000000005
sa(dp532
g10
I529
sg11
I97
sg12
g16
sg14
F8.0700000000000003
sa(dp533
g10
I528
sg11
I81
sg12
g16
sg14
F8.0800000000000001
sa(dp534
g10
I527
sg11
I70
sg12
g16
sg14
F8.0999999999999996
sa(dp535
g10
I527
sg11
I66
sg12
g16
sg14
F8.1099999999999994
sa(dp536
g10
I527
sg11
I63
sg12
g16
sg14
F8.1199999999999992
sa(dp537
g10
I527
sg11
I63
sg12
g58
sg14
F8.3000000000000007
sasS'mouse1'
p538
(lp539
(dp540
g10
I525
sg11
I703
sg12
g13
sg14
F1.3100000000000001
sa(dp541
g10
I525
sg11
I702
sg12
g16
sg14
F1.3300000000000001
sa(dp542
g10
I526
sg11
I702
sg12
g16
sg14
F1.3400000000000001
sa(dp543
g10
I528
sg11
I702
sg12
g16
sg14
F1.3600000000000001
sa(dp544
g10
I534
sg11
I701
sg12
g16
sg14
F1.3700000000000001
sa(dp545
g10
I563
sg11
I698
sg12
g16
sg14
F1.3899999999999999
sa(dp546
g10
I613
sg11
I696
sg12
g16
sg14
F1.3999999999999999
sa(dp547
g10
I660
sg11
I696
sg12
g16
sg14
F1.4099999999999999
sa(dp548
g10
I718
sg11
I696
sg12
g16
sg14
F1.4199999999999999
sa(dp549
g10
I746
sg11
I696
sg12
g16
sg14
F1.4299999999999999
sa(dp550
g10
I765
sg11
I696
sg12
g16
sg14
F1.4399999999999999
sa(dp551
g10
I778
sg11
I697
sg12
g16
sg14
F1.46
sa(dp552
g10
I783
sg11
I698
sg12
g16
sg14
F1.47
sa(dp553
g10
I789
sg11
I702
sg12
g16
sg14
F1.49
sa(dp554
g10
I789
sg11
I697
sg12
g16
sg14
F1.96
sa(dp555
g10
I786
sg11
I686
sg12
g16
sg14
F1.97
sa(dp556
g10
I781
sg11
I669
sg12
g16
sg14
F1.98
sa(dp557
g10
I773
sg11
I651
sg12
g16
sg14
F1.99
sa(dp558
g10
I758
sg11
I617
sg12
g16
sg14
F2.0
sa(dp559
g10
I700
sg11
I520
sg12
g16
sg14
F2.0099999999999998
sa(dp560
g10
I654
sg11
I452
sg12
g16
sg14
F2.02
sa(dp561
g10
I599
sg11
I387
sg12
g16
sg14
F2.0299999999999998
sa(dp562
g10
I554
sg11
I337
sg12
g16
sg14
F2.04
sa(dp563
g10
I522
sg11
I295
sg12
g16
sg14
F2.0600000000000001
sa(dp564
g10
I504
sg11
I271
sg12
g16
sg14
F2.0699999999999998
sa(dp565
g10
I495
sg11
I261
sg12
g16
sg14
F2.0800000000000001
sa(dp566
g10
I492
sg11
I258
sg12
g16
sg14
F2.2000000000000002
sa(dp567
g10
I486
sg11
I256
sg12
g16
sg14
F2.21
sa(dp568
g10
I477
sg11
I250
sg12
g16
sg14
F2.2200000000000002
sa(dp569
g10
I466
sg11
I245
sg12
g16
sg14
F2.23
sa(dp570
g10
I451
sg11
I239
sg12
g16
sg14
F2.2400000000000002
sa(dp571
g10
I406
sg11
I221
sg12
g16
sg14
F2.25
sa(dp572
g10
I359
sg11
I202
sg12
g16
sg14
F2.2599999999999998
sa(dp573
g10
I301
sg11
I180
sg12
g16
sg14
F2.27
sa(dp574
g10
I267
sg11
I168
sg12
g16
sg14
F2.2799999999999998
sa(dp575
g10
I245
sg11
I160
sg12
g16
sg14
F2.29
sa(dp576
g10
I229
sg11
I154
sg12
g16
sg14
F2.3100000000000001
sa(dp577
g10
I215
sg11
I150
sg12
g16
sg14
F2.3300000000000001
sa(dp578
g10
I199
sg11
I148
sg12
g16
sg14
F2.3399999999999999
sa(dp579
g10
I187
sg11
I146
sg12
g16
sg14
F2.3500000000000001
sa(dp580
g10
I177
sg11
I143
sg12
g16
sg14
F2.3599999999999999
sa(dp581
g10
I170
sg11
I142
sg12
g16
sg14
F2.3700000000000001
sa(dp582
g10
I165
sg11
I140
sg12
g16
sg14
F2.3799999999999999
sa(dp583
g10
I163
sg11
I138
sg12
g16
sg14
F2.3900000000000001
sa(dp584
g10
I159
sg11
I136
sg12
g16
sg14
F2.3999999999999999
sa(dp585
g10
I158
sg11
I135
sg12
g16
sg14
F2.4100000000000001
sa(dp586
g10
I154
sg11
I132
sg12
g16
sg14
F2.4199999999999999
sa(dp587
g10
I152
sg11
I130
sg12
g16
sg14
F2.4399999999999999
sa(dp588
g10
I149
sg11
I128
sg12
g16
sg14
F2.4500000000000002
sa(dp589
g10
I146
sg11
I125
sg12
g16
sg14
F2.4700000000000002
sa(dp590
g10
I141
sg11
I121
sg12
g16
sg14
F2.48
sa(dp591
g10
I137
sg11
I119
sg12
g16
sg14
F2.4900000000000002
sa(dp592
g10
I133
sg11
I117
sg12
g16
sg14
F2.5
sa(dp593
g10
I129
sg11
I114
sg12
g16
sg14
F2.5099999999999998
sa(dp594
g10
I125
sg11
I111
sg12
g16
sg14
F2.52
sa(dp595
g10
I122
sg11
I108
sg12
g16
sg14
F2.5299999999999998
sa(dp596
g10
I120
sg11
I104
sg12
g16
sg14
F2.54
sa(dp597
g10
I118
sg11
I103
sg12
g16
sg14
F2.5600000000000001
sa(dp598
g10
I118
sg11
I102
sg12
g16
sg14
F2.5699999999999998
sa(dp599
g10
I118
sg11
I102
sg12
g58
sg14
F2.6600000000000001
sasS'mouse3'
p600
(lp601
(dp602
g10
I221
sg11
I489
sg12
g13
sg14
F4.1200000000000001
sa(dp603
g10
I219
sg11
I490
sg12
g16
sg14
F4.1299999999999999
sa(dp604
g10
I218
sg11
I491
sg12
g16
sg14
F4.1399999999999997
sa(dp605
g10
I217
sg11
I493
sg12
g16
sg14
F4.1500000000000004
sa(dp606
g10
I215
sg11
I496
sg12
g16
sg14
F4.1600000000000001
sa(dp607
g10
I209
sg11
I506
sg12
g16
sg14
F4.1699999999999999
sa(dp608
g10
I204
sg11
I514
sg12
g16
sg14
F4.1900000000000004
sa(dp609
g10
I199
sg11
I523
sg12
g16
sg14
F4.2000000000000002
sa(dp610
g10
I189
sg11
I538
sg12
g16
sg14
F4.21
sa(dp611
g10
I177
sg11
I555
sg12
g16
sg14
F4.2199999999999998
sa(dp612
g10
I167
sg11
I568
sg12
g16
sg14
F4.2300000000000004
sa(dp613
g10
I159
sg11
I577
sg12
g16
sg14
F4.2400000000000002
sa(dp614
g10
I152
sg11
I583
sg12
g16
sg14
F4.25
sa(dp615
g10
I147
sg11
I589
sg12
g16
sg14
F4.2599999999999998
sa(dp616
g10
I144
sg11
I595
sg12
g16
sg14
F4.2699999999999996
sa(dp617
g10
I140
sg11
I603
sg12
g16
sg14
F4.2800000000000002
sa(dp618
g10
I137
sg11
I609
sg12
g16
sg14
F4.3099999999999996
sa(dp619
g10
I136
sg11
I614
sg12
g16
sg14
F4.3200000000000003
sa(dp620
g10
I135
sg11
I616
sg12
g16
sg14
F4.3399999999999999
sa(dp621
g10
I134
sg11
I619
sg12
g16
sg14
F4.3499999999999996
sa(dp622
g10
I132
sg11
I621
sg12
g16
sg14
F4.3700000000000001
sa(dp623
g10
I132
sg11
I622
sg12
g16
sg14
F4.3799999999999999
sa(dp624
g10
I132
sg11
I624
sg12
g16
sg14
F4.3899999999999997
sa(dp625
g10
I131
sg11
I626
sg12
g16
sg14
F4.4000000000000004
sa(dp626
g10
I131
sg11
I627
sg12
g16
sg14
F4.4100000000000001
sa(dp627
g10
I131
sg11
I628
sg12
g16
sg14
F4.4299999999999997
sa(dp628
g10
I131
sg11
I632
sg12
g16
sg14
F4.5999999999999996
sa(dp629
g10
I131
sg11
I636
sg12
g16
sg14
F4.6100000000000003
sa(dp630
g10
I131
sg11
I640
sg12
g16
sg14
F4.6200000000000001
sa(dp631
g10
I131
sg11
I646
sg12
g16
sg14
F4.6299999999999999
sa(dp632
g10
I130
sg11
I652
sg12
g16
sg14
F4.6399999999999997
sa(dp633
g10
I130
sg11
I657
sg12
g16
sg14
F4.6500000000000004
sa(dp634
g10
I130
sg11
I660
sg12
g16
sg14
F4.6600000000000001
sa(dp635
g10
I130
sg11
I661
sg12
g16
sg14
F4.6699999999999999
sa(dp636
g10
I130
sg11
I662
sg12
g16
sg14
F4.6799999999999997
sa(dp637
g10
I130
sg11
I663
sg12
g16
sg14
F4.7000000000000002
sa(dp638
g10
I130
sg11
I665
sg12
g16
sg14
F4.71
sa(dp639
g10
I130
sg11
I666
sg12
g16
sg14
F4.7199999999999998
sa(dp640
g10
I130
sg11
I667
sg12
g16
sg14
F4.7599999999999998
sa(dp641
g10
I130
sg11
I667
sg12
g58
sg14
F4.8799999999999999
sasS'mouse2'
p642
(lp643
(dp644
g10
I214
sg11
I142
sg12
g13
sg14
F3.0699999999999998
sa(dp645
g10
I214
sg11
I143
sg12
g16
sg14
F3.0800000000000001
sa(dp646
g10
I214
sg11
I144
sg12
g16
sg14
F3.0899999999999999
sa(dp647
g10
I214
sg11
I145
sg12
g16
sg14
F3.1099999999999999
sa(dp648
g10
I212
sg11
I146
sg12
g16
sg14
F3.1299999999999999
sa(dp649
g10
I209
sg11
I149
sg12
g16
sg14
F3.1400000000000001
sa(dp650
g10
I204
sg11
I154
sg12
g16
sg14
F3.1600000000000001
sa(dp651
g10
I198
sg11
I162
sg12
g16
sg14
F3.1699999999999999
sa(dp652
g10
I186
sg11
I174
sg12
g16
sg14
F3.1800000000000002
sa(dp653
g10
I172
sg11
I193
sg12
g16
sg14
F3.1899999999999999
sa(dp654
g10
I161
sg11
I209
sg12
g16
sg14
F3.2000000000000002
sa(dp655
g10
I154
sg11
I222
sg12
g16
sg14
F3.21
sa(dp656
g10
I145
sg11
I241
sg12
g16
sg14
F3.2200000000000002
sa(dp657
g10
I138
sg11
I256
sg12
g16
sg14
F3.23
sa(dp658
g10
I130
sg11
I269
sg12
g16
sg14
F3.2400000000000002
sa(dp659
g10
I124
sg11
I284
sg12
g16
sg14
F3.25
sa(dp660
g10
I116
sg11
I301
sg12
g16
sg14
F3.2599999999999998
sa(dp661
g10
I111
sg11
I315
sg12
g16
sg14
F3.2799999999999998
sa(dp662
g10
I106
sg11
I326
sg12
g16
sg14
F3.29
sa(dp663
g10
I102
sg11
I335
sg12
g16
sg14
F3.2999999999999998
sa(dp664
g10
I95
sg11
I347
sg12
g16
sg14
F3.3100000000000001
sa(dp665
g10
I86
sg11
I360
sg12
g16
sg14
F3.3199999999999998
sa(dp666
g10
I81
sg11
I366
sg12
g16
sg14
F3.3300000000000001
sa(dp667
g10
I77
sg11
I372
sg12
g16
sg14
F3.3500000000000001
sa(dp668
g10
I72
sg11
I378
sg12
g16
sg14
F3.3599999999999999
sa(dp669
g10
I70
sg11
I380
sg12
g16
sg14
F3.3700000000000001
sa(dp670
g10
I68
sg11
I382
sg12
g16
sg14
F3.3799999999999999
sa(dp671
g10
I67
sg11
I384
sg12
g16
sg14
F3.3900000000000001
sa(dp672
g10
I67
sg11
I384
sg12
g58
sg14
F3.4900000000000002
sasS'mouse28'
p673
(lp674
(dp675
g10
I791
sg11
I1024
sg12
g13
sg14
F35.060000000000002
sa(dp676
g10
I791
sg11
I1023
sg12
g16
sg14
F35.079999999999998
sa(dp677
g10
I791
sg11
I1022
sg12
g16
sg14
F35.090000000000003
sa(dp678
g10
I791
sg11
I1016
sg12
g16
sg14
F35.100000000000001
sa(dp679
g10
I792
sg11
I1008
sg12
g16
sg14
F35.109999999999999
sa(dp680
g10
I794
sg11
I983
sg12
g16
sg14
F35.130000000000003
sa(dp681
g10
I797
sg11
I943
sg12
g16
sg14
F35.149999999999999
sa(dp682
g10
I799
sg11
I899
sg12
g16
sg14
F35.159999999999997
sa(dp683
g10
I799
sg11
I821
sg12
g16
sg14
F35.170000000000002
sa(dp684
g10
I798
sg11
I776
sg12
g16
sg14
F35.18
sa(dp685
g10
I790
sg11
I721
sg12
g16
sg14
F35.189999999999998
sa(dp686
g10
I784
sg11
I693
sg12
g16
sg14
F35.200000000000003
sa(dp687
g10
I779
sg11
I676
sg12
g16
sg14
F35.210000000000001
sa(dp688
g10
I773
sg11
I665
sg12
g16
sg14
F35.229999999999997
sa(dp689
g10
I767
sg11
I658
sg12
g16
sg14
F35.240000000000002
sa(dp690
g10
I765
sg11
I655
sg12
g16
sg14
F35.25
sa(dp691
g10
I764
sg11
I654
sg12
g16
sg14
F35.399999999999999
sa(dp692
g10
I762
sg11
I650
sg12
g16
sg14
F35.409999999999997
sa(dp693
g10
I759
sg11
I643
sg12
g16
sg14
F35.43
sa(dp694
g10
I751
sg11
I636
sg12
g16
sg14
F35.460000000000001
sa(dp695
g10
I745
sg11
I630
sg12
g16
sg14
F35.469999999999999
sa(dp696
g10
I740
sg11
I623
sg12
g16
sg14
F35.490000000000002
sa(dp697
g10
I732
sg11
I612
sg12
g16
sg14
F35.509999999999998
sa(dp698
g10
I722
sg11
I602
sg12
g16
sg14
F35.520000000000003
sa(dp699
g10
I711
sg11
I592
sg12
g16
sg14
F35.539999999999999
sa(dp700
g10
I704
sg11
I586
sg12
g16
sg14
F35.549999999999997
sa(dp701
g10
I699
sg11
I580
sg12
g16
sg14
F35.560000000000002
sa(dp702
g10
I693
sg11
I572
sg12
g16
sg14
F35.57
sa(dp703
g10
I687
sg11
I565
sg12
g16
sg14
F35.579999999999998
sa(dp704
g10
I681
sg11
I556
sg12
g16
sg14
F35.600000000000001
sa(dp705
g10
I674
sg11
I548
sg12
g16
sg14
F35.609999999999999
sa(dp706
g10
I668
sg11
I542
sg12
g16
sg14
F35.630000000000003
sa(dp707
g10
I665
sg11
I541
sg12
g16
sg14
F35.659999999999997
sa(dp708
g10
I664
sg11
I540
sg12
g16
sg14
F35.68
sa(dp709
g10
I664
sg11
I540
sg12
g58
sg14
F35.759999999999998
sasS'mouse29'
p710
(lp711
(dp712
g10
I521
sg11
I54
sg12
g13
sg14
F36.490000000000002
sa(dp713
g10
I527
sg11
I73
sg12
g16
sg14
F36.5
sa(dp714
g10
I533
sg11
I90
sg12
g16
sg14
F36.509999999999998
sa(dp715
g10
I554
sg11
I141
sg12
g16
sg14
F36.520000000000003
sa(dp716
g10
I588
sg11
I201
sg12
g16
sg14
F36.530000000000001
sa(dp717
g10
I626
sg11
I270
sg12
g16
sg14
F36.549999999999997
sa(dp718
g10
I646
sg11
I316
sg12
g16
sg14
F36.560000000000002
sa(dp719
g10
I661
sg11
I363
sg12
g16
sg14
F36.57
sa(dp720
g10
I670
sg11
I393
sg12
g16
sg14
F36.579999999999998
sa(dp721
g10
I675
sg11
I420
sg12
g16
sg14
F36.590000000000003
sa(dp722
g10
I677
sg11
I447
sg12
g16
sg14
F36.609999999999999
sa(dp723
g10
I677
sg11
I469
sg12
g16
sg14
F36.619999999999997
sa(dp724
g10
I677
sg11
I493
sg12
g16
sg14
F36.630000000000003
sa(dp725
g10
I676
sg11
I512
sg12
g16
sg14
F36.640000000000001
sa(dp726
g10
I675
sg11
I525
sg12
g16
sg14
F36.649999999999999
sa(dp727
g10
I676
sg11
I528
sg12
g16
sg14
F36.659999999999997
sa(dp728
g10
I682
sg11
I530
sg12
g16
sg14
F36.68
sa(dp729
g10
I683
sg11
I535
sg12
g16
sg14
F36.780000000000001
sa(dp730
g10
I685
sg11
I543
sg12
g16
sg14
F36.799999999999997
sa(dp731
g10
I687
sg11
I556
sg12
g16
sg14
F36.810000000000002
sa(dp732
g10
I692
sg11
I568
sg12
g16
sg14
F36.829999999999998
sa(dp733
g10
I698
sg11
I583
sg12
g16
sg14
F36.840000000000003
sa(dp734
g10
I708
sg11
I609
sg12
g16
sg14
F36.859999999999999
sa(dp735
g10
I716
sg11
I632
sg12
g16
sg14
F36.869999999999997
sa(dp736
g10
I721
sg11
I655
sg12
g16
sg14
F36.890000000000001
sa(dp737
g10
I727
sg11
I676
sg12
g16
sg14
F36.899999999999999
sa(dp738
g10
I730
sg11
I692
sg12
g16
sg14
F36.920000000000002
sa(dp739
g10
I733
sg11
I708
sg12
g16
sg14
F36.93
sa(dp740
g10
I735
sg11
I717
sg12
g16
sg14
F36.939999999999998
sa(dp741
g10
I737
sg11
I734
sg12
g16
sg14
F36.960000000000001
sa(dp742
g10
I741
sg11
I748
sg12
g16
sg14
F36.969999999999999
sa(dp743
g10
I744
sg11
I756
sg12
g16
sg14
F36.979999999999997
sa(dp744
g10
I748
sg11
I763
sg12
g16
sg14
F36.990000000000002
sa(dp745
g10
I749
sg11
I765
sg12
g16
sg14
F37.0
sa(dp746
g10
I751
sg11
I767
sg12
g16
sg14
F37.030000000000001
sa(dp747
g10
I754
sg11
I773
sg12
g16
sg14
F37.039999999999999
sa(dp748
g10
I756
sg11
I777
sg12
g16
sg14
F37.049999999999997
sa(dp749
g10
I757
sg11
I780
sg12
g16
sg14
F37.060000000000002
sa(dp750
g10
I758
sg11
I784
sg12
g16
sg14
F37.07
sa(dp751
g10
I760
sg11
I786
sg12
g16
sg14
F37.100000000000001
sa(dp752
g10
I761
sg11
I788
sg12
g16
sg14
F37.109999999999999
sa(dp753
g10
I761
sg11
I790
sg12
g16
sg14
F37.119999999999997
sa(dp754
g10
I761
sg11
I791
sg12
g16
sg14
F37.130000000000003
sa(dp755
g10
I763
sg11
I791
sg12
g16
sg14
F37.340000000000003
sa(dp756
g10
I764
sg11
I791
sg12
g16
sg14
F37.359999999999999
sa(dp757
g10
I764
sg11
I790
sg12
g16
sg14
F37.390000000000001
sa(dp758
g10
I765
sg11
I790
sg12
g16
sg14
F37.420000000000002
sa(dp759
g10
I765
sg11
I790
sg12
g58
sg14
F37.490000000000002
sasS'mouse24'
p760
(lp761
(dp762
g10
I544
sg11
I963
sg12
g13
sg14
F30.370000000000001
sa(dp763
g10
I544
sg11
I962
sg12
g16
sg14
F30.390000000000001
sa(dp764
g10
I543
sg11
I962
sg12
g16
sg14
F30.399999999999999
sa(dp765
g10
I539
sg11
I960
sg12
g16
sg14
F30.41
sa(dp766
g10
I536
sg11
I960
sg12
g16
sg14
F30.420000000000002
sa(dp767
g10
I532
sg11
I958
sg12
g16
sg14
F30.43
sa(dp768
g10
I524
sg11
I957
sg12
g16
sg14
F30.440000000000001
sa(dp769
g10
I516
sg11
I953
sg12
g16
sg14
F30.460000000000001
sa(dp770
g10
I499
sg11
I946
sg12
g16
sg14
F30.48
sa(dp771
g10
I468
sg11
I934
sg12
g16
sg14
F30.489999999999998
sa(dp772
g10
I452
sg11
I926
sg12
g16
sg14
F30.5
sa(dp773
g10
I434
sg11
I919
sg12
g16
sg14
F30.510000000000002
sa(dp774
g10
I414
sg11
I913
sg12
g16
sg14
F30.52
sa(dp775
g10
I398
sg11
I908
sg12
g16
sg14
F30.530000000000001
sa(dp776
g10
I378
sg11
I904
sg12
g16
sg14
F30.550000000000001
sa(dp777
g10
I359
sg11
I902
sg12
g16
sg14
F30.559999999999999
sa(dp778
g10
I343
sg11
I901
sg12
g16
sg14
F30.57
sa(dp779
g10
I335
sg11
I900
sg12
g16
sg14
F30.579999999999998
sa(dp780
g10
I323
sg11
I900
sg12
g16
sg14
F30.600000000000001
sa(dp781
g10
I308
sg11
I900
sg12
g16
sg14
F30.609999999999999
sa(dp782
g10
I295
sg11
I900
sg12
g16
sg14
F30.620000000000001
sa(dp783
g10
I284
sg11
I900
sg12
g16
sg14
F30.629999999999999
sa(dp784
g10
I273
sg11
I900
sg12
g16
sg14
F30.640000000000001
sa(dp785
g10
I262
sg11
I901
sg12
g16
sg14
F30.649999999999999
sa(dp786
g10
I254
sg11
I902
sg12
g16
sg14
F30.66
sa(dp787
g10
I253
sg11
I902
sg12
g16
sg14
F30.670000000000002
sa(dp788
g10
I251
sg11
I903
sg12
g16
sg14
F30.68
sa(dp789
g10
I246
sg11
I904
sg12
g16
sg14
F30.850000000000001
sa(dp790
g10
I242
sg11
I904
sg12
g16
sg14
F30.859999999999999
sa(dp791
g10
I239
sg11
I903
sg12
g16
sg14
F30.870000000000001
sa(dp792
g10
I233
sg11
I902
sg12
g16
sg14
F30.879999999999999
sa(dp793
g10
I226
sg11
I901
sg12
g16
sg14
F30.890000000000001
sa(dp794
g10
I219
sg11
I900
sg12
g16
sg14
F30.899999999999999
sa(dp795
g10
I213
sg11
I900
sg12
g16
sg14
F30.91
sa(dp796
g10
I200
sg11
I898
sg12
g16
sg14
F30.93
sa(dp797
g10
I190
sg11
I897
sg12
g16
sg14
F30.940000000000001
sa(dp798
g10
I183
sg11
I896
sg12
g16
sg14
F30.949999999999999
sa(dp799
g10
I178
sg11
I895
sg12
g16
sg14
F30.960000000000001
sa(dp800
g10
I175
sg11
I895
sg12
g16
sg14
F30.98
sa(dp801
g10
I173
sg11
I895
sg12
g16
sg14
F30.989999999999998
sa(dp802
g10
I172
sg11
I894
sg12
g16
sg14
F31.0
sa(dp803
g10
I171
sg11
I894
sg12
g16
sg14
F31.02
sa(dp804
g10
I171
sg11
I893
sg12
g16
sg14
F31.050000000000001
sa(dp805
g10
I171
sg11
I892
sg12
g16
sg14
F31.059999999999999
sa(dp806
g10
I171
sg11
I892
sg12
g58
sg14
F31.100000000000001
sasS'mouse25'
p807
(lp808
(dp809
g10
I239
sg11
I746
sg12
g13
sg14
F31.640000000000001
sa(dp810
g10
I239
sg11
I743
sg12
g16
sg14
F31.649999999999999
sa(dp811
g10
I240
sg11
I740
sg12
g16
sg14
F31.66
sa(dp812
g10
I244
sg11
I731
sg12
g16
sg14
F31.670000000000002
sa(dp813
g10
I258
sg11
I706
sg12
g16
sg14
F31.68
sa(dp814
g10
I299
sg11
I653
sg12
g16
sg14
F31.699999999999999
sa(dp815
g10
I331
sg11
I607
sg12
g16
sg14
F31.719999999999999
sa(dp816
g10
I360
sg11
I570
sg12
g16
sg14
F31.73
sa(dp817
g10
I393
sg11
I523
sg12
g16
sg14
F31.739999999999998
sa(dp818
g10
I409
sg11
I492
sg12
g16
sg14
F31.75
sa(dp819
g10
I419
sg11
I472
sg12
g16
sg14
F31.760000000000002
sa(dp820
g10
I425
sg11
I459
sg12
g16
sg14
F31.77
sa(dp821
g10
I428
sg11
I454
sg12
g16
sg14
F31.789999999999999
sa(dp822
g10
I428
sg11
I454
sg12
g58
sg14
F32.009999999999998
sasS'mouse26'
p823
(lp824
(dp825
g10
I262
sg11
I311
sg12
g13
sg14
F32.68
sa(dp826
g10
I262
sg11
I312
sg12
g16
sg14
F32.710000000000001
sa(dp827
g10
I262
sg11
I316
sg12
g16
sg14
F32.729999999999997
sa(dp828
g10
I263
sg11
I324
sg12
g16
sg14
F32.740000000000002
sa(dp829
g10
I265
sg11
I333
sg12
g16
sg14
F32.759999999999998
sa(dp830
g10
I268
sg11
I348
sg12
g16
sg14
F32.770000000000003
sa(dp831
g10
I270
sg11
I372
sg12
g16
sg14
F32.780000000000001
sa(dp832
g10
I275
sg11
I417
sg12
g16
sg14
F32.789999999999999
sa(dp833
g10
I281
sg11
I493
sg12
g16
sg14
F32.799999999999997
sa(dp834
g10
I284
sg11
I541
sg12
g16
sg14
F32.810000000000002
sa(dp835
g10
I284
sg11
I601
sg12
g16
sg14
F32.82
sa(dp836
g10
I284
sg11
I631
sg12
g16
sg14
F32.829999999999998
sa(dp837
g10
I282
sg11
I651
sg12
g16
sg14
F32.850000000000001
sa(dp838
g10
I280
sg11
I663
sg12
g16
sg14
F32.859999999999999
sa(dp839
g10
I277
sg11
I671
sg12
g16
sg14
F32.890000000000001
sa(dp840
g10
I276
sg11
I678
sg12
g16
sg14
F32.899999999999999
sa(dp841
g10
I275
sg11
I683
sg12
g16
sg14
F32.909999999999997
sa(dp842
g10
I274
sg11
I691
sg12
g16
sg14
F32.920000000000002
sa(dp843
g10
I274
sg11
I698
sg12
g16
sg14
F32.939999999999998
sa(dp844
g10
I274
sg11
I704
sg12
g16
sg14
F32.950000000000003
sa(dp845
g10
I274
sg11
I705
sg12
g16
sg14
F32.969999999999999
sa(dp846
g10
I274
sg11
I706
sg12
g16
sg14
F32.990000000000002
sa(dp847
g10
I274
sg11
I708
sg12
g16
sg14
F33.0
sa(dp848
g10
I274
sg11
I711
sg12
g16
sg14
F33.009999999999998
sa(dp849
g10
I274
sg11
I713
sg12
g16
sg14
F33.030000000000001
sa(dp850
g10
I274
sg11
I716
sg12
g16
sg14
F33.039999999999999
sa(dp851
g10
I274
sg11
I718
sg12
g16
sg14
F33.049999999999997
sa(dp852
g10
I274
sg11
I719
sg12
g16
sg14
F33.060000000000002
sa(dp853
g10
I274
sg11
I720
sg12
g16
sg14
F33.07
sa(dp854
g10
I274
sg11
I721
sg12
g16
sg14
F33.100000000000001
sa(dp855
g10
I274
sg11
I721
sg12
g58
sg14
F33.130000000000003
sasS'mouse27'
p856
(lp857
(dp858
g10
I121
sg11
I212
sg12
g13
sg14
F33.700000000000003
sa(dp859
g10
I122
sg11
I211
sg12
g16
sg14
F33.710000000000001
sa(dp860
g10
I143
sg11
I224
sg12
g16
sg14
F33.719999999999999
sa(dp861
g10
I155
sg11
I232
sg12
g16
sg14
F33.729999999999997
sa(dp862
g10
I178
sg11
I249
sg12
g16
sg14
F33.740000000000002
sa(dp863
g10
I215
sg11
I281
sg12
g16
sg14
F33.75
sa(dp864
g10
I255
sg11
I312
sg12
g16
sg14
F33.770000000000003
sa(dp865
g10
I306
sg11
I362
sg12
g16
sg14
F33.780000000000001
sa(dp866
g10
I332
sg11
I392
sg12
g16
sg14
F33.789999999999999
sa(dp867
g10
I355
sg11
I420
sg12
g16
sg14
F33.799999999999997
sa(dp868
g10
I374
sg11
I448
sg12
g16
sg14
F33.82
sa(dp869
g10
I391
sg11
I472
sg12
g16
sg14
F33.829999999999998
sa(dp870
g10
I402
sg11
I489
sg12
g16
sg14
F33.840000000000003
sa(dp871
g10
I411
sg11
I502
sg12
g16
sg14
F33.850000000000001
sa(dp872
g10
I419
sg11
I519
sg12
g16
sg14
F33.859999999999999
sa(dp873
g10
I431
sg11
I539
sg12
g16
sg14
F33.869999999999997
sa(dp874
g10
I445
sg11
I555
sg12
g16
sg14
F33.890000000000001
sa(dp875
g10
I456
sg11
I565
sg12
g16
sg14
F33.899999999999999
sa(dp876
g10
I466
sg11
I577
sg12
g16
sg14
F33.909999999999997
sa(dp877
g10
I471
sg11
I589
sg12
g16
sg14
F33.920000000000002
sa(dp878
g10
I478
sg11
I601
sg12
g16
sg14
F33.93
sa(dp879
g10
I482
sg11
I608
sg12
g16
sg14
F33.939999999999998
sa(dp880
g10
I487
sg11
I615
sg12
g16
sg14
F33.950000000000003
sa(dp881
g10
I489
sg11
I619
sg12
g16
sg14
F33.960000000000001
sa(dp882
g10
I493
sg11
I625
sg12
g16
sg14
F33.969999999999999
sa(dp883
g10
I495
sg11
I632
sg12
g16
sg14
F33.979999999999997
sa(dp884
g10
I498
sg11
I639
sg12
g16
sg14
F33.990000000000002
sa(dp885
g10
I499
sg11
I643
sg12
g16
sg14
F34.020000000000003
sa(dp886
g10
I500
sg11
I644
sg12
g16
sg14
F34.030000000000001
sa(dp887
g10
I501
sg11
I646
sg12
g16
sg14
F34.039999999999999
sa(dp888
g10
I502
sg11
I648
sg12
g16
sg14
F34.049999999999997
sa(dp889
g10
I502
sg11
I650
sg12
g16
sg14
F34.07
sa(dp890
g10
I503
sg11
I651
sg12
g16
sg14
F34.079999999999998
sa(dp891
g10
I503
sg11
I652
sg12
g16
sg14
F34.090000000000003
sa(dp892
g10
I503
sg11
I652
sg12
g58
sg14
F34.130000000000003
sasS'mouse20'
p893
(lp894
(dp895
g10
I469
sg11
I607
sg12
g13
sg14
F26.09
sa(dp896
g10
I471
sg11
I609
sg12
g16
sg14
F26.100000000000001
sa(dp897
g10
I473
sg11
I614
sg12
g16
sg14
F26.109999999999999
sa(dp898
g10
I476
sg11
I626
sg12
g16
sg14
F26.129999999999999
sa(dp899
g10
I479
sg11
I637
sg12
g16
sg14
F26.140000000000001
sa(dp900
g10
I484
sg11
I665
sg12
g16
sg14
F26.149999999999999
sa(dp901
g10
I487
sg11
I686
sg12
g16
sg14
F26.16
sa(dp902
g10
I491
sg11
I702
sg12
g16
sg14
F26.170000000000002
sa(dp903
g10
I496
sg11
I723
sg12
g16
sg14
F26.190000000000001
sa(dp904
g10
I501
sg11
I738
sg12
g16
sg14
F26.210000000000001
sa(dp905
g10
I506
sg11
I750
sg12
g16
sg14
F26.219999999999999
sa(dp906
g10
I509
sg11
I760
sg12
g16
sg14
F26.23
sa(dp907
g10
I511
sg11
I772
sg12
g16
sg14
F26.239999999999998
sa(dp908
g10
I512
sg11
I787
sg12
g16
sg14
F26.25
sa(dp909
g10
I512
sg11
I798
sg12
g16
sg14
F26.260000000000002
sa(dp910
g10
I509
sg11
I807
sg12
g16
sg14
F26.27
sa(dp911
g10
I507
sg11
I811
sg12
g16
sg14
F26.280000000000001
sa(dp912
g10
I505
sg11
I817
sg12
g16
sg14
F26.300000000000001
sa(dp913
g10
I503
sg11
I818
sg12
g16
sg14
F26.329999999999998
sa(dp914
g10
I502
sg11
I820
sg12
g16
sg14
F26.350000000000001
sa(dp915
g10
I502
sg11
I821
sg12
g16
sg14
F26.359999999999999
sa(dp916
g10
I501
sg11
I821
sg12
g16
sg14
F26.370000000000001
sa(dp917
g10
I501
sg11
I822
sg12
g16
sg14
F26.379999999999999
sa(dp918
g10
I501
sg11
I822
sg12
g58
sg14
F26.449999999999999
sasS'mouse21'
p919
(lp920
(dp921
g10
I528
sg11
I703
sg12
g13
sg14
F26.879999999999999
sa(dp922
g10
I534
sg11
I709
sg12
g16
sg14
F26.890000000000001
sa(dp923
g10
I538
sg11
I714
sg12
g16
sg14
F26.899999999999999
sa(dp924
g10
I545
sg11
I727
sg12
g16
sg14
F26.91
sa(dp925
g10
I558
sg11
I746
sg12
g16
sg14
F26.93
sa(dp926
g10
I569
sg11
I763
sg12
g16
sg14
F26.940000000000001
sa(dp927
g10
I581
sg11
I785
sg12
g16
sg14
F26.960000000000001
sa(dp928
g10
I589
sg11
I802
sg12
g16
sg14
F26.969999999999999
sa(dp929
g10
I599
sg11
I817
sg12
g16
sg14
F26.98
sa(dp930
g10
I610
sg11
I835
sg12
g16
sg14
F26.989999999999998
sa(dp931
g10
I622
sg11
I853
sg12
g16
sg14
F27.0
sa(dp932
g10
I631
sg11
I868
sg12
g16
sg14
F27.010000000000002
sa(dp933
g10
I640
sg11
I880
sg12
g16
sg14
F27.02
sa(dp934
g10
I645
sg11
I889
sg12
g16
sg14
F27.030000000000001
sa(dp935
g10
I649
sg11
I895
sg12
g16
sg14
F27.039999999999999
sa(dp936
g10
I652
sg11
I904
sg12
g16
sg14
F27.050000000000001
sa(dp937
g10
I654
sg11
I911
sg12
g16
sg14
F27.079999999999998
sa(dp938
g10
I655
sg11
I915
sg12
g16
sg14
F27.09
sa(dp939
g10
I658
sg11
I923
sg12
g16
sg14
F27.100000000000001
sa(dp940
g10
I659
sg11
I928
sg12
g16
sg14
F27.120000000000001
sa(dp941
g10
I659
sg11
I928
sg12
g58
sg14
F27.280000000000001
sasS'mouse22'
p942
(lp943
(dp944
g10
I547
sg11
I584
sg12
g13
sg14
F27.989999999999998
sa(dp945
g10
I549
sg11
I586
sg12
g16
sg14
F28.050000000000001
sa(dp946
g10
I551
sg11
I590
sg12
g16
sg14
F28.07
sa(dp947
g10
I555
sg11
I598
sg12
g16
sg14
F28.079999999999998
sa(dp948
g10
I560
sg11
I607
sg12
g16
sg14
F28.100000000000001
sa(dp949
g10
I567
sg11
I620
sg12
g16
sg14
F28.109999999999999
sa(dp950
g10
I573
sg11
I633
sg12
g16
sg14
F28.120000000000001
sa(dp951
g10
I582
sg11
I649
sg12
g16
sg14
F28.129999999999999
sa(dp952
g10
I590
sg11
I665
sg12
g16
sg14
F28.140000000000001
sa(dp953
g10
I601
sg11
I688
sg12
g16
sg14
F28.149999999999999
sa(dp954
g10
I610
sg11
I705
sg12
g16
sg14
F28.170000000000002
sa(dp955
g10
I619
sg11
I718
sg12
g16
sg14
F28.18
sa(dp956
g10
I625
sg11
I727
sg12
g16
sg14
F28.190000000000001
sa(dp957
g10
I630
sg11
I734
sg12
g16
sg14
F28.210000000000001
sa(dp958
g10
I634
sg11
I742
sg12
g16
sg14
F28.219999999999999
sa(dp959
g10
I637
sg11
I751
sg12
g16
sg14
F28.23
sa(dp960
g10
I639
sg11
I758
sg12
g16
sg14
F28.239999999999998
sa(dp961
g10
I641
sg11
I763
sg12
g16
sg14
F28.25
sa(dp962
g10
I642
sg11
I766
sg12
g16
sg14
F28.27
sa(dp963
g10
I642
sg11
I770
sg12
g16
sg14
F28.280000000000001
sa(dp964
g10
I644
sg11
I774
sg12
g16
sg14
F28.300000000000001
sa(dp965
g10
I646
sg11
I779
sg12
g16
sg14
F28.32
sa(dp966
g10
I649
sg11
I785
sg12
g16
sg14
F28.329999999999998
sa(dp967
g10
I651
sg11
I789
sg12
g16
sg14
F28.34
sa(dp968
g10
I654
sg11
I793
sg12
g16
sg14
F28.350000000000001
sa(dp969
g10
I656
sg11
I797
sg12
g16
sg14
F28.359999999999999
sa(dp970
g10
I657
sg11
I801
sg12
g16
sg14
F28.370000000000001
sa(dp971
g10
I657
sg11
I801
sg12
g58
sg14
F28.43
sasS'mouse23'
p972
(lp973
(dp974
g10
I531
sg11
I449
sg12
g13
sg14
F28.960000000000001
sa(dp975
g10
I531
sg11
I451
sg12
g16
sg14
F29.0
sa(dp976
g10
I532
sg11
I455
sg12
g16
sg14
F29.010000000000002
sa(dp977
g10
I539
sg11
I473
sg12
g16
sg14
F29.02
sa(dp978
g10
I549
sg11
I499
sg12
g16
sg14
F29.039999999999999
sa(dp979
g10
I562
sg11
I539
sg12
g16
sg14
F29.050000000000001
sa(dp980
g10
I573
sg11
I576
sg12
g16
sg14
F29.059999999999999
sa(dp981
g10
I592
sg11
I629
sg12
g16
sg14
F29.07
sa(dp982
g10
I605
sg11
I659
sg12
g16
sg14
F29.079999999999998
sa(dp983
g10
I615
sg11
I679
sg12
g16
sg14
F29.09
sa(dp984
g10
I623
sg11
I694
sg12
g16
sg14
F29.100000000000001
sa(dp985
g10
I629
sg11
I705
sg12
g16
sg14
F29.109999999999999
sa(dp986
g10
I634
sg11
I716
sg12
g16
sg14
F29.120000000000001
sa(dp987
g10
I636
sg11
I729
sg12
g16
sg14
F29.129999999999999
sa(dp988
g10
I637
sg11
I739
sg12
g16
sg14
F29.140000000000001
sa(dp989
g10
I637
sg11
I748
sg12
g16
sg14
F29.170000000000002
sa(dp990
g10
I637
sg11
I753
sg12
g16
sg14
F29.18
sa(dp991
g10
I637
sg11
I755
sg12
g16
sg14
F29.190000000000001
sa(dp992
g10
I637
sg11
I757
sg12
g16
sg14
F29.199999999999999
sa(dp993
g10
I637
sg11
I761
sg12
g16
sg14
F29.210000000000001
sa(dp994
g10
I637
sg11
I766
sg12
g16
sg14
F29.219999999999999
sa(dp995
g10
I637
sg11
I770
sg12
g16
sg14
F29.23
sa(dp996
g10
I637
sg11
I773
sg12
g16
sg14
F29.239999999999998
sa(dp997
g10
I637
sg11
I777
sg12
g16
sg14
F29.260000000000002
sa(dp998
g10
I637
sg11
I779
sg12
g16
sg14
F29.27
sa(dp999
g10
I637
sg11
I780
sg12
g16
sg14
F29.289999999999999
sa(dp1000
g10
I637
sg11
I782
sg12
g16
sg14
F29.300000000000001
sa(dp1001
g10
I637
sg11
I783
sg12
g16
sg14
F29.309999999999999
sa(dp1002
g10
I636
sg11
I783
sg12
g16
sg14
F29.329999999999998
sa(dp1003
g10
I635
sg11
I783
sg12
g16
sg14
F29.34
sa(dp1004
g10
I633
sg11
I783
sg12
g16
sg14
F29.350000000000001
sa(dp1005
g10
I632
sg11
I783
sg12
g16
sg14
F29.359999999999999
sa(dp1006
g10
I630
sg11
I781
sg12
g16
sg14
F29.370000000000001
sa(dp1007
g10
I628
sg11
I778
sg12
g16
sg14
F29.379999999999999
sa(dp1008
g10
I626
sg11
I774
sg12
g16
sg14
F29.399999999999999
sa(dp1009
g10
I624
sg11
I771
sg12
g16
sg14
F29.41
sa(dp1010
g10
I622
sg11
I768
sg12
g16
sg14
F29.420000000000002
sa(dp1011
g10
I620
sg11
I766
sg12
g16
sg14
F29.440000000000001
sa(dp1012
g10
I618
sg11
I764
sg12
g16
sg14
F29.449999999999999
sa(dp1013
g10
I616
sg11
I763
sg12
g16
sg14
F29.460000000000001
sa(dp1014
g10
I613
sg11
I761
sg12
g16
sg14
F29.469999999999999
sa(dp1015
g10
I611
sg11
I760
sg12
g16
sg14
F29.48
sa(dp1016
g10
I610
sg11
I759
sg12
g16
sg14
F29.489999999999998
sa(dp1017
g10
I608
sg11
I759
sg12
g16
sg14
F29.5
sa(dp1018
g10
I605
sg11
I758
sg12
g16
sg14
F29.510000000000002
sa(dp1019
g10
I602
sg11
I757
sg12
g16
sg14
F29.539999999999999
sa(dp1020
g10
I598
sg11
I756
sg12
g16
sg14
F29.550000000000001
sa(dp1021
g10
I595
sg11
I754
sg12
g16
sg14
F29.559999999999999
sa(dp1022
g10
I593
sg11
I753
sg12
g16
sg14
F29.57
sa(dp1023
g10
I591
sg11
I753
sg12
g16
sg14
F29.59
sa(dp1024
g10
I589
sg11
I751
sg12
g16
sg14
F29.600000000000001
sa(dp1025
g10
I587
sg11
I751
sg12
g16
sg14
F29.620000000000001
sa(dp1026
g10
I584
sg11
I751
sg12
g16
sg14
F29.629999999999999
sa(dp1027
g10
I582
sg11
I751
sg12
g16
sg14
F29.640000000000001
sa(dp1028
g10
I581
sg11
I751
sg12
g16
sg14
F29.649999999999999
sa(dp1029
g10
I580
sg11
I752
sg12
g16
sg14
F29.66
sa(dp1030
g10
I580
sg11
I752
sg12
g58
sg14
F29.73
sass.