(lp0
(lp1
F1.0788719681502654
aI146
aI421
aI47
aF445.5973518772301
a(lp2
(lp3
F9.8287037453854555
aS'touch_move'
p4
aI1666
aI1089
aa(lp5
F18.711617413604888
ag4
aI857
aI968
aa(lp6
F24.377816715277373
ag4
aI1301
aI767
aa(lp7
F35.960492177981855
aS'touch_down'
p8
aI885
aI1171
aa(lp9
F36.043765566536948
aS'touch_up'
p10
aI885
aI1171
aa(lp11
F63.192431750152082
ag8
aI1364
aI360
aa(lp12
F63.292373487304275
ag10
aI1364
aI360
aa(lp13
F64.859019681919307
ag8
aI378
aI1037
aa(lp14
F64.881407805351614
ag4
aI377
aI1037
aa(lp15
F64.892573127307273
ag4
aI376
aI1037
aa(lp16
F64.90924948583762
ag4
aI374
aI1036
aa(lp17
F64.925878283514294
ag4
aI366
aI1033
aa(lp18
F64.942552107065765
ag4
aI356
aI1027
aa(lp19
F64.958973872717721
ag10
aI356
aI1027
aa(lp20
F65.857401720818984
ag4
aI1557
aI1166
aa(lp21
F65.8653721556487
ag4
aI1565
aI1165
aa(lp22
F65.875898171681897
ag4
aI1573
aI1165
aa(lp23
F65.892534544295458
ag4
aI1579
aI1165
aa(lp24
F71.192033934300539
ag8
aI1919
aI1198
aa(lp25
F71.291982320147326
ag10
aI1919
aI1198
aa(lp26
F71.608691282155974
ag8
aI1884
aI1138
aa(lp27
F71.70863786801776
ag10
aI1884
aI1138
aa(lp28
F73.341934207214933
ag8
aI1429
aI742
aa(lp29
F73.425232004316626
ag10
aI1429
aI742
aa(lp30
F82.808203765385286
ag8
aI112
aI829
aa(lp31
F82.924740250497905
ag10
aI112
aI829
aaaa(lp32
F1.7455144165465288
aI179
aI177
aI141
aF246.22144504490262
ag2
aa(lp33
F2.6288167131940567
aI1457
aI1192
aI102
aF1632.0260414588979
ag2
aa(lp34
F3.2954197344188798
aI1422
aI1177
aI82
aF38.078865529319543
ag2
aa(lp35
F4.2286992145898781
aI1847
aI260
aI108
aF1010.6997575937179
ag2
aa(lp36
F5.0120084745127116
aI1164
aI885
aI39
aF925.80451500303241
ag2
aa(lp37
F5.7119840238831339
aI1217
aI713
aI33
aF179.98055450520204
ag2
aa(lp38
F6.611921943150473
aI1444
aI142
aI68
aF614.46724892381371
ag2
aa(lp39
F7.411906601611653
aI430
aI1008
aI89
aF1333.4736592824022
ag2
aa(lp40
F8.1118576824359785
aI119
aI791
aI92
aF379.22288960451743
ag2
aa(lp41
F9.0451345563786969
aI1210
aI146
aI43
aF1267.4012782067091
ag2
aa(lp42
F9.8450892525895615
aI1598
aI1013
aI96
aF949.85946328917521
ag2
aa(lp43
F10.728399232923058
aI1887
aI889
aI84
aF314.4789341116508
ag2
aa(lp44
F11.761686760943659
aI1754
aI825
aI36
aF147.59742545180114
ag2
aa(lp45
F12.61165226289781
aI1849
aI399
aI80
aF436.46420242672821
ag2
aa(lp46
F13.578233753052057
aI209
aI1092
aI44
aF1780.4069759467918
ag2
aa(lp47
F14.297883607219939
aI388
aI1149
aI83
aF187.85632808079689
ag2
aa(lp48
F14.861512422813142
aI342
aI1103
aI123
aF65.053823869162372
ag2
aa(lp49
F15.878143234639712
aI774
aI112
aI83
aF1081.0666029435929
ag2
aa(lp50
F16.611452079982666
aI645
aI634
aI109
aF537.70344986804764
ag2
aa(lp51
F17.211392622978142
aI653
aI749
aI123
aF115.27792503337315
ag2
aa(lp52
F18.028022128982258
aI1286
aI234
aI82
aF816.03553844180101
ag2
aa(lp53
F18.761323425638118
aI784
aI947
aI116
aF871.99369263773917
ag2
aa(lp54
F19.444616766526945
aI1349
aI902
aI143
aF566.78920243773166
ag2
aa(lp55
F20.211241320488995
aI896
aI278
aI99
aF771.09337955918159
ag2
aa(lp56
F20.844534059299505
aI589
aI600
aI79
aF444.89661720449169
ag2
aa(lp57
F21.561172418563178
aI928
aI1163
aI87
aF657.18338384350523
ag2
aa(lp58
F22.127792812976558
aI919
aI961
aI108
aF202.20039564748632
ag2
aa(lp59
F23.011105898284182
aI49
aI419
aI77
aF1025.0190242136973
ag2
aa(lp60
F23.761056523695636
aI537
aI1077
aI86
aF819.21181632102935
ag2
aa(lp61
F24.477680059332837
aI1247
aI690
aI96
aF808.62166678861627
ag2
aa(lp62
F25.494297300022499
aI1321
aI1193
aI34
aF508.4142012178653
ag2
aa(lp63
F26.29425630494746
aI892
aI290
aI83
aF999.72496217709795
ag2
aa(lp64
F27.11089990333414
aI1
aI531
aI111
aF923.01787631659658
ag2
aa(lp65
F27.860872376063533
aI1176
aI779
aI104
aF1200.8867556934749
ag2
aa(lp66
F28.694142522145647
aI300
aI1062
aI97
aF920.57862238920143
ag2
aa(lp67
F29.361726205198291
aI653
aI690
aI126
aF512.82843134912093
ag2
aa(lp68
F30.210735656369529
aI672
aI294
aI94
aF396.45554605781467
ag2
aa(lp69
F31.044026078532678
aI1139
aI1104
aI106
aF934.98074846490829
ag2
aa(lp70
F32.093996167531941
aI1057
aI1073
aI55
aF87.664131775772461
ag2
aa(lp71
F32.977253464554465
aI514
aI402
aI126
aF863.18595910730619
ag2
aa(lp72
F34.227191454654545
aI933
aI210
aI31
aF460.89586676384937
ag2
aa(lp73
F34.81051477987684
aI823
aI306
aI134
aF146.0
ag2
aa(lp74
F35.310476963525311
aI953
aI445
aI142
aF190.31815467789718
ag2
aa(lp75
F36.360432367646936
aI740
aI1063
aI140
aF653.67652550783862
ag2
aa(lp76
F37.143714552795394
aI1037
aI101
aI67
aF1006.8033571656384
ag2
aa(lp77
F38.176990320913994
aI1723
aI243
aI54
aF700.54264681031373
ag2
aa(lp78
F38.993618398180018
aI864
aI44
aI106
aF881.74939750475585
ag2
aa(lp79
F39.610266634444713
aI636
aI714
aI100
aF707.73158753866562
ag2
aa(lp80
F40.526877563520308
aI712
aI228
aI32
aF491.90649517972417
ag2
aa(lp81
F41.560157917850688
aI19
aI537
aI41
aF758.76873947204751
ag2
aa(lp82
F42.393463321138995
aI2
aI923
aI51
aF386.37417097937589
ag2
aa(lp83
F43.460047466687783
aI1439
aI683
aI38
aF1456.9039089795867
ag2
aa(lp84
F44.060022190648418
aI1117
aI809
aI138
aF345.77449298639715
ag2
aa(lp85
F44.826662378230182
aI238
aI292
aI135
aF1019.7695818173829
ag2
aa(lp86
F45.809983642636311
aI915
aI987
aI86
aF970.2339923956489
ag2
aa(lp87
F46.443257987850103
aI1274
aI703
aI148
aF457.75211632498218
ag2
aa(lp88
F47.309889217173193
aI436
aI1032
aI33
aF900.2694041230103
ag2
aa(lp89
F48.059809269089428
aI1087
aI1119
aI106
aF656.78763691165807
ag2
aa(lp90
F49.043104478712678
aI297
aI814
aI64
aF846.83233287351516
ag2
aa(lp91
F49.843064571128579
aI33
aI487
aI50
aF420.267771783657
ag2
aa(lp92
F50.543045670452749
aI914
aI820
aI149
aF941.83331858668066
ag2
aa(lp93
F51.259672971058578
aI296
aI649
aI93
aF641.22149059431877
ag2
aa(lp94
F51.909658864509467
aI1078
aI894
aI85
aF819.48093327422816
ag2
aa(lp95
F52.659609223673137
aI67
aI739
aI63
aF1022.8127883439862
ag2
aa(lp96
F53.52622229939751
aI1264
aI1173
aI55
aF1273.2497791085611
ag2
aa(lp97
F54.759479318505683
aI1913
aI75
aI35
aF1275.4626611547669
ag2
aa(lp98
F55.47610729035592
aI730
aI503
aI132
aF1258.0433219885554
ag2
aa(lp99
F56.626058352430398
aI1386
aI503
aI34
aF656.0
ag2
aa(lp100
F57.326009478254349
aI1419
aI123
aI125
aF381.43020331379108
ag2
aa(lp101
F58.026019407338275
aI474
aI586
aI141
aF1052.3278956675053
ag2
aa(lp102
F59.009278339763839
aI1316
aI1144
aI102
aF1010.1128649809386
ag2
aa(lp103
F59.675898217098194
aI1199
aI664
aI131
aF494.0536408124122
ag2
aa(lp104
F60.425859503670807
aI1558
aI159
aI108
aF619.60148482714271
ag2
aa(lp105
F61.259149607086613
aI417
aI977
aI33
aF1403.9248555389281
ag2
aa(lp106
F61.809131903900806
aI472
aI630
aI123
aF351.33175205210244
ag2
aa(lp107
F62.609099260006168
aI1588
aI231
aI86
aF1185.1822644639938
ag2
aa(lp108
F63.575701926233954
aI1258
aI316
aI96
aF340.77118422777477
ag2
aa(lp109
F64.259004559545332
aI1027
aI113
aI124
aF307.52235691084314
ag2
aa(lp110
F65.129451513320717
aI254
aI982
aI109
aF1163.0520194729038
ag2
aa(lp111
F65.908914741543811
aI1551
aI1112
aI91
aF1303.4987533557521
ag2
aa(lp112
F66.642226403113298
aI1161
aI294
aI130
aF906.21410273731669
ag2
aa(lp113
F67.408843517137356
aI306
aI873
aI103
aF1032.6015688541249
ag2
aa(lp114
F68.225479218089845
aI554
aI493
aI72
aF453.76645975655805
ag2
aa(lp115
F69.125420478579343
aI722
aI218
aI53
aF322.2561093292104
ag2
aa(lp116
F69.792059972000231
aI1060
aI29
aI148
aF387.25314717894804
ag2
aa(lp117
F70.558675518537342
aI1112
aI852
aI103
aF824.64113406984495
ag2
aa(lp118
F71.991969209423246
aI1880
aI1033
aI102
aF789.04055662557676
ag2
aa(lp119
F72.741908292430892
aI1022
aI667
aI100
aF932.80222984296086
ag2
aa(lp120
F73.775189344255466
aI1434
aI694
aI78
aF412.88376088192183
ag2
aa(lp121
F74.491825472287729
aI1255
aI1095
aI142
aF439.13779158710537
ag2
aa(lp122
F75.241776866442777
aI793
aI726
aI50
aF591.27404813673331
ag2
aa(lp123
F76.025088571345236
aI1918
aI632
aI143
aF1128.9202806221526
ag2
aa(lp124
F76.808385122623974
aI134
aI1056
aI79
aF1833.6935403714547
ag2
aa(lp125
F77.591651239156334
aI1023
aI802
aI59
aF924.57395593862577
ag2
aa(lp126
F78.608285032208059
aI334
aI18
aI69
aF1043.732245357975
ag2
aa(lp127
F79.641576028949757
aI1260
aI572
aI38
aF1079.0699699278077
ag2
aa(lp128
F80.558180328080596
aI1581
aI1142
aI71
aF654.17199573200935
ag2
aa(lp129
F81.424826287280936
aI458
aI1109
aI143
aF1123.4847573509842
ag2
aa(lp130
F82.208094267547764
aI1336
aI500
aI123
aF1068.5340425087074
ag2
aa(lp131
F83.274743100057492
aI116
aI783
aI132
aF1252.3933088291394
ag2
aa.